(lp0
I7690385
aI7690386
aI7700351
aI7700725
aI7691269
aI7702683
aI7702685
aI7708512
aI7708517
aI7585983
aI7639418
aI7644586
aI7638827
aI7690421
aI7705527
aI7518884
aI7518893
aI7518896
aI7518878
aI7518901
aI7518886
aI7518903
aI7518880
aI7518902
aI7518883
aI7518879
aI7518900
aI7518899
aI7518885
aI7518897
aI7518876
aI7518892
aI7518877
aI7518887
aI7518895
aI7518882
aI7518898
aI7518890
aI7518906
aI7518907
aI7518905
aI7518904
aI7518889
aI7518891
aI7518894
aI7518888
aI7518872
aI7518869
aI7518857
aI7518874
aI7518865
aI7518866
aI7518871
aI7518861
aI7518864
aI7518862
aI7518870
aI7518859
aI7518856
aI7518868
aI7518875
aI7518867
aI7518873
aI7518863
aI7518860
aI7518881
aI7518853
aI7519545
aI7669607
aI7510865
aI7543200
aI7664203
aI7610125
aI7553171
aI7670542
aI7669726
aI7708406
aI7786599
aI7669783
aI7818863
aI7818779
aI7818721
aI7611844
aI7704533
aI7704665
aI7704041
aI7704236
aI7702800
aI7703874
aI7703998
aI7669447
aI7669474
aI7669498
aI7669520
aI7669570
aI7670049
aI7670114
aI7670119
aI7670134
aI7670510
aI7670524
aI7670545
aI7670612
aI7670617
aI7670491
aI7670649
aI7670657
aI7670663
aI7670816
aI7670835
aI7670095
aI7670101
aI7670111
aI7670870
aI7671170
aI7671335
aI7600742
aI7690729
aI7691329
aI7691118
aI7690696
aI7690337
aI7690929
aI7690196
aI7691380
aI7691373
aI7691424
aI7690691
aI7691420
aI7689861
aI7691410
aI7690297
aI7690766
aI7690573
aI7690525
aI7690462
aI7690423
aI7690678
aI7690642
aI7690063
aI7690045
aI7691253
aI7704188
aI7592906
aI7703982
aI7700846
aI7669566
aI7702352
aI7701770
aI7701707
aI7701704
aI7701693
aI7699786
aI7699530
aI7703328
aI7703343
aI7703344
aI7700317
aI7669337
aI7669358
aI7526312
aI7575028
aI7535764
aI7791180
aI7811273
aI7811272
aI7819156
aI7705641
aI7818490
aI7669727
aI7670058
aI7702299
aI7699880
aI7699890
aI7704500
aI7670175
aI7670235
aI7670274
aI7701463
aI7670336
aI7670340
aI7670346
aI7670356
aI7670375
aI7670389
aI7670543
aI7670544
aI7701365
aI7703997
aI7702068
aI7702403
aI7670771
aI7701688
aI7669779
aI7669784
aI7702349
aI7701864
aI7671067
aI7525457
aI7528766
aI7528754
aI7522105
aI7536373
aI7536370
aI7536800
aI7536803
aI7536727
aI7536257
aI7536260
aI7536244
aI7536253
aI7536263
aI7536250
aI7536247
aI7536678
aI7536675
aI7536723
aI7533111
aI7533085
aI7533096
aI7533120
aI7533102
aI7533070
aI7533067
aI7533073
aI7533088
aI7533105
aI7533115
aI7533247
aI7533221
aI7533199
aI7533349
aI7533317
aI7533447
aI7533595
aI7533640
aI7533503
aI7533743
aI7533795
aI7533837
aI7533859
aI7534183
aI7534691
aI7534865
aI7534746
aI7534765
aI7534945
aI7535376
aI7533241
aI7533285
aI7533291
aI7533422
aI7533413
aI7533238
aI7533279
aI7533327
aI7533324
aI7533438
aI7533441
aI7535272
aI7533371
aI7534345
aI7534223
aI7533264
aI7533946
aI7533297
aI7533288
aI7534174
aI7533390
aI7533475
aI7533456
aI7533478
aI7533355
aI7533215
aI7533988
aI7533393
aI7534292
aI7537027
aI7535664
aI7535642
aI7535645
aI7535655
aI7535658
aI7535648
aI7535651
aI7535661
aI7531685
aI7533416
aI7533228
aI7533257
aI7535481
aI7533384
aI7533368
aI7533276
aI7533358
aI7533396
aI7536793
aI7533361
aI7533432
aI7532410
aI7532379
aI7532423
aI7532417
aI7532426
aI7532450
aI7532420
aI7532444
aI7532441
aI7532438
aI7532431
aI7532435
aI7532591
aI7532345
aI7532350
aI7532335
aI7532329
aI7532332
aI7532338
aI7532342
aI7532391
aI7532039
aI7532070
aI7532017
aI7527248
aI7530671
aI7530674
aI7530349
aI7525227
aI7525225
aI7525230
aI7525223
aI7526995
aI7526998
aI7527001
aI7527399
aI7527402
aI7527408
aI7527411
aI7527405
aI7527613
aI7527616
aI7527619
aI7530668
aI7525503
aI7531988
aI7529968
aI7530094
aI7530097
aI7530085
aI7530088
aI7530091
aI7529771
aI7528970
aI7528964
aI7530082
aI7528770
aI7528746
aI7523273
aI7521853
aI7522028
aI7522034
aI7522044
aI7522047
aI7522037
aI7522050
aI7522056
aI7529176
aI7531409
aI7522361
aI7523295
aI7530875
aI7530952
aI7530949
aI7522358
aI7531457
aI7531458
aI7530956
aI7530988
aI7530257
aI7530259
aI7530261
aI7522069
aI7522136
aI7522085
aI7522088
aI7522082
aI7523985
aI7523982
aI7523976
aI7523973
aI7523965
aI7523962
aI7523959
aI7523979
aI7527948
aI7530543
aI7530546
aI7526882
aI7526885
aI7526873
aI7526879
aI7526870
aI7526876
aI7531251
aI7527694
aI7531996
aI7531992
aI7529043
aI7529051
aI7529048
aI7530699
aI7529505
aI7524649
aI7524936
aI7524954
aI7524958
aI7524962
aI7524965
aI7524968
aI7524951
aI7524643
aI7524948
aI7524921
aI7524918
aI7524930
aI7524933
aI7524942
aI7524646
aI7524924
aI7524927
aI7524626
aI7524054
aI7524051
aI7524035
aI7524048
aI7524044
aI7524038
aI7524026
aI7524029
aI7524032
aI7524629
aI7524022
aI7524632
aI7524638
aI7524635
aI7531185
aI7523611
aI7531550
aI7531547
aI7531544
aI7528476
aI7527747
aI7527750
aI7523596
aI7523599
aI7523614
aI7523618
aI7523605
aI7523602
aI7530432
aI7530436
aI7531207
aI7528926
aI7531268
aI7531325
aI7531322
aI7523690
aI7531613
aI7531610
aI7531607
aI7531604
aI7531715
aI7529450
aI7529447
aI7527156
aI7526552
aI7526555
aI7526562
aI7526574
aI7525847
aI7526577
aI7525765
aI7526586
aI7526592
aI7526595
aI7526033
aI7526598
aI7526608
aI7526624
aI7526627
aI7526634
aI7526641
aI7526650
aI7526653
aI7526663
aI7526673
aI7526657
aI7526548
aI7526631
aI7526568
aI7526666
aI7527877
aI7527880
aI7527883
aI7527886
aI7522929
aI7522935
aI7522938
aI7522591
aI7522920
aI7522923
aI7522926
aI7522917
aI7522904
aI7522907
aI7522910
aI7522914
aI7526565
aI7523223
aI7523227
aI7523213
aI7526612
aI7526618
aI7526644
aI7526660
aI7528704
aI7528711
aI7528717
aI7528720
aI7529067
aI7526615
aI7526621
aI7523216
aI7523230
aI7522944
aI7532009
aI7528708
aI7522170
aI7528829
aI7528795
aI7528826
aI7523220
aI7523209
aI7530836
aI7529412
aI7529409
aI7529246
aI7529399
aI7525181
aI7522208
aI7528179
aI7528176
aI7528173
aI7530133
aI7530127
aI7530130
aI7529107
aI7529111
aI7525169
aI7525172
aI7525175
aI7525178
aI7525187
aI7525184
aI7525190
aI7525197
aI7525201
aI7525163
aI7817878
aI7669301
aI7673858
aI7672932
aI7673752
aI7673750
aI7673696
aI7673570
aI7673564
aI7673549
aI7669326
aI7699740
aI7699900
aI7699652
aI7699580
aI7669393
aI7704182
aI7704179
aI7701997
aI7702342
aI7700190
aI7702746
aI7702802
aI7703879
aI7701050
aI7700535
aI7700972
aI7704005
aI7700431
aI7703774
aI7704636
aI7704577
aI7704666
aI7704662
aI7704744
aI7704611
aI7704049
aI7701597
aI7704237
aI7704238
aI7704293
aI7704291
aI7704289
aI7818318
aI7818194
aI7818189
aI7818205
aI7818195
aI7818321
aI7818152
aI7818254
aI7818158
aI7818198
aI7817790
aI7817791
aI7817818
aI7817800
aI7669427
aI7669448
aI7669449
aI7669476
aI7669499
aI7669509
aI7669522
aI7669523
aI7669586
aI7669594
aI7669729
aI7669731
aI7669732
aI7669733
aI7669734
aI7669735
aI7669736
aI7669737
aI7669738
aI7669739
aI7669741
aI7669742
aI7669743
aI7669744
aI7669745
aI7669749
aI7669750
aI7669751
aI7669752
aI7669754
aI7669755
aI7670050
aI7670051
aI7670052
aI7670053
aI7670054
aI7670066
aI7670068
aI7670072
aI7670073
aI7670074
aI7670075
aI7670078
aI7670079
aI7670080
aI7669714
aI7670115
aI7670120
aI7670121
aI7670126
aI7670130
aI7670135
aI7670136
aI7670137
aI7670138
aI7670139
aI7670140
aI7670141
aI7670143
aI7670144
aI7670145
aI7670146
aI7670147
aI7670149
aI7670289
aI7670292
aI7670293
aI7670294
aI7670295
aI7670296
aI7670300
aI7670302
aI7670304
aI7670305
aI7670306
aI7670308
aI7670309
aI7670310
aI7670311
aI7670312
aI7670427
aI7670428
aI7670430
aI7670431
aI7670432
aI7670433
aI7670434
aI7670436
aI7670437
aI7670438
aI7670440
aI7670445
aI7670448
aI7670451
aI7670460
aI7670482
aI7670511
aI7670520
aI7670546
aI7670547
aI7670550
aI7670618
aI7669814
aI7669816
aI7669817
aI7669818
aI7669819
aI7669825
aI7669827
aI7669829
aI7669830
aI7669832
aI7669833
aI7669834
aI7669836
aI7669840
aI7669844
aI7669845
aI7669847
aI7669849
aI7669850
aI7669792
aI7669793
aI7669794
aI7669795
aI7669797
aI7669799
aI7669800
aI7669802
aI7669803
aI7669804
aI7669851
aI7669852
aI7669853
aI7669854
aI7669855
aI7669858
aI7669861
aI7669863
aI7669865
aI7669866
aI7669867
aI7669868
aI7669872
aI7669873
aI7669875
aI7669878
aI7669880
aI7669881
aI7669888
aI7669894
aI7669895
aI7669896
aI7669897
aI7669898
aI7669899
aI7669900
aI7669901
aI7669903
aI7669905
aI7669907
aI7669912
aI7669913
aI7669916
aI7669918
aI7669920
aI7669921
aI7669922
aI7669924
aI7669925
aI7669926
aI7669927
aI7669928
aI7669929
aI7669813
aI7669821
aI7669826
aI7669828
aI7669831
aI7669835
aI7669839
aI7669841
aI7669842
aI7669843
aI7669846
aI7669848
aI7669790
aI7669798
aI7669805
aI7669806
aI7669808
aI7669810
aI7669860
aI7669870
aI7669871
aI7669874
aI7669876
aI7669877
aI7669879
aI7669884
aI7669887
aI7669889
aI7669891
aI7669892
aI7669904
aI7669914
aI7669915
aI7669917
aI7669923
aI7670647
aI7670485
aI7670487
aI7670488
aI7670489
aI7670658
aI7670659
aI7670660
aI7670661
aI7670662
aI7670664
aI7670665
aI7670666
aI7670667
aI7670668
aI7670810
aI7670811
aI7670812
aI7670813
aI7670814
aI7670815
aI7670817
aI7670818
aI7670819
aI7670820
aI7670821
aI7670827
aI7670829
aI7670830
aI7670834
aI7670836
aI7670096
aI7670097
aI7670098
aI7670099
aI7670100
aI7670102
aI7670112
aI7670113
aI7671171
aI7671172
aI7671173
aI7669466
aI7671336
aI7671337
aI7671338
aI7671339
aI7671340
aI7671341
aI7671342
aI7671343
aI7671344
aI7671345
aI7671346
aI7671347
aI7671044
aI7671073
aI7670935
aI7818598
aI7818611
aI7647690
aI7647689
aI7647688
aI7647687
aI7647686
aI7647685
aI7647684
aI7647683
aI7647682
aI7647681
aI7647680
aI7647679
aI7647678
aI7647677
aI7647676
aI7647675
aI7647674
aI7803749
aI7690730
aI7691330
aI7691144
aI7691137
aI7691131
aI7691128
aI7691122
aI7691119
aI7690959
aI7690692
aI7690957
aI7690955
aI7690953
aI7690942
aI7690697
aI7690338
aI7690015
aI7689985
aI7690931
aI7690930
aI7690197
aI7691381
aI7691377
aI7691376
aI7691375
aI7691374
aI7691425
aI7691011
aI7691014
aI7691013
aI7691012
aI7690564
aI7690563
aI7690561
aI7691421
aI7689936
aI7689935
aI7689934
aI7689932
aI7689931
aI7689930
aI7689927
aI7689924
aI7689959
aI7689958
aI7689957
aI7689956
aI7689955
aI7689953
aI7689952
aI7689951
aI7689950
aI7689949
aI7689948
aI7689945
aI7689944
aI7689942
aI7689940
aI7689920
aI7689919
aI7689918
aI7689869
aI7522901
aI7818742
aI7592907
aI7546200
aI7700259
aI7701108
aI7701081
aI7701318
aI7700564
aI7527580
aI7529083
aI7529082
aI7701374
aI7701373
aI7703218
aI7703219
aI7700878
aI7700370
aI7702255
aI7699683
aI7700914
aI7700142
aI7666920
aI7700044
aI7700133
aI7700144
aI7700135
aI7700094
aI7700098
aI7700132
aI7700103
aI7565319
aI7700520
aI7702259
aI7702631
aI7702230
aI7704621
aI7701821
aI7702227
aI7704278
aI7790536
aI7702374
aI7707262
aI7793759
aI7638771
aI7704355
aI7704139
aI7704135
aI7704485
aI7702580
aI7704502
aI7704717
aI7704385
aI7702747
aI7704497
aI7578407
aI7644514
aI7638772
aI7638828
aI7639419
aI7576483
aI7701340
aI7519251
aI7519248
aI7519242
aI7519240
aI7695282
aI7519735
aI7518855
aI7518854
aI7519546
aI7690398
aI7700768
aI7700361
aI7700108
aI7700102
aI7702266
aI7554787
aI7639337
aI7702646
aI7702647
aI7700131
aI7801339
aI7703712
aI7702613
aI7700622
aI7702609
aI7700141
aI7700624
aI7700398
aI7700365
aI7701311
aI7700126
aI7700136
aI7702254
aI7702252
aI7701123
aI7702376
aI7702097
aI7701197
aI7701201
aI7702169
aI7702105
aI7702102
aI7702098
aI7702100
aI7702153
aI7702095
aI7702154
aI7700886
aI7701314
aI7701321
aI7702053
aI7701203
aI7700882
aI7700880
aI7700906
aI7700908
aI7700918
aI7700917
aI7700915
aI7702990
aI7700716
aI7702249
aI7702686
aI7702231
aI7701779
aI7701756
aI7701774
aI7701785
aI7702663
aI7700371
aI7701684
aI7702192
aI7702193
aI7702035
aI7703912
aI7700871
aI7701345
aI7700778
aI7701119
aI7700036
aI7701649
aI7701648
aI7702183
aI7704187
aI7701822
aI7701978
aI7700965
aI7702680
aI7700736
aI7700786
aI7700784
aI7700715
aI7700712
aI7701939
aI7701620
aI7701683
aI7702194
aI7700755
aI7700740
aI7702195
aI7701385
aI7700780
aI7700363
aI7700884
aI7703483
aI7701615
aI7702602
aI7700385
aI7699378
aI7701024
aI7702268
aI7699454
aI7702239
aI7699379
aI7702244
aI7699380
aI7700788
aI7699455
aI7701038
aI7701530
aI7699493
aI7701498
aI7702182
aI7702263
aI7700414
aI7702303
aI7702684
aI7699688
aI7702210
aI7703240
aI7702754
aI7703614
aI7702296
aI7699666
aI7704284
aI7703597
aI7700912
aI7701188
aI7702952
aI7700408
aI7700713
aI7700380
aI7699685
aI7701128
aI7700507
aI7699691
aI7699751
aI7703229
aI7700877
aI7700402
aI7699665
aI7701685
aI7699755
aI7699754
aI7700369
aI7699757
aI7699669
aI7703224
aI7701344
aI7702086
aI7701200
aI7700779
aI7703242
aI7699420
aI7702891
aI7699693
aI7702157
aI7702253
aI7701013
aI7700153
aI7699654
aI7701213
aI7699726
aI7699729
aI7702764
aI7699731
aI7700981
aI7700907
aI7702581
aI7700985
aI7702753
aI7702936
aI7702064
aI7702085
aI7700597
aI7700404
aI7700377
aI7700403
aI7703891
aI7699505
aI7701404
aI7701568
aI7701480
aI7700406
aI7701537
aI7700405
aI7700359
aI7700381
aI7700378
aI7700374
aI7700372
aI7699656
aI7704647
aI7702880
aI7702475
aI7701121
aI7701526
aI7701564
aI7701468
aI7701461
aI7701460
aI7701619
aI7701439
aI7701487
aI7701482
aI7701474
aI7701471
aI7701407
aI7701414
aI7701506
aI7700626
aI7701422
aI7701625
aI7701555
aI7701547
aI7701545
aI7701540
aI7701521
aI7701624
aI7701617
aI7701520
aI7701518
aI7701517
aI7700760
aI7703247
aI7700766
aI7700718
aI7700625
aI7700632
aI7700630
aI7700916
aI7704281
aI7701312
aI7701797
aI7701798
aI7704623
aI7701202
aI7703893
aI7701587
aI7702243
aI7701527
aI7699499
aI7701493
aI7703887
aI7700032
aI7704632
aI7699366
aI7702122
aI7702313
aI7702658
aI7702659
aI7702632
aI7700373
aI7700366
aI7702229
aI7702679
aI7700890
aI7701533
aI7702372
aI7700911
aI7700783
aI7701698
aI7810706
aI7810567
aI7810575
aI7818773
aI7818639
aI7575473
aI7669256
aI7699545
aI7700961
aI7699686
aI7702043
aI7700765
aI7700821
aI7703640
aI7673378
aI7575443
aI7576299
aI7690762
aI7810570
aI7669658
aI7670577
aI7670690
aI7669933
aI7671235
aI7670635
aI7670743
aI7669671
aI7669672
aI7671321
aI7671329
aI7671238
aI7670180
aI7670824
aI7670262
aI7669639
aI7670241
aI7671256
aI7670742
aI7670557
aI7670587
aI7670229
aI7670215
aI7669309
aI7690963
aI7690968
aI7670332
aI7690284
aI7671232
aI7670224
aI7669679
aI7670591
aI7690148
aI7690151
aI7670505
aI7670509
aI7670173
aI7691231
aI7691232
aI7670174
aI7670807
aI7670808
aI7670614
aI7669669
aI7669670
aI7670198
aI7669441
aI7690681
aI7691399
aI7670671
aI7670672
aI7670002
aI7802311
aI7802312
aI7670615
aI7690754
aI7626124
aI7690781
aI7670226
aI7691088
aI7670583
aI7671266
aI7669945
aI7584643
aI7690528
aI7670064
aI7673562
aI7670213
aI7670566
aI7670849
aI7670196
aI7690510
aI7670157
aI7690515
aI7670767
aI7690387
aI7670565
aI7690128
aI7690077
aI7670590
aI7670192
aI7671129
aI7690787
aI7670210
aI7671233
aI7689906
aI7689907
aI7671365
aI7670160
aI7567256
aI7670745
aI7669279
aI7670741
aI7671298
aI7669644
aI7669666
aI7791142
aI7791143
aI7671275
aI7670260
aI7670763
aI7671323
aI7669652
aI7671260
aI7670155
aI7671246
aI7670588
aI7671240
aI7669785
aI7669786
aI7670739
aI7671325
aI7690425
aI7670249
aI7690150
aI7670575
aI7690149
aI7671166
aI7600472
aI7690033
aI7690034
aI7690537
aI7671168
aI7691259
aI7591658
aI7671296
aI7671368
aI7660046
aI7670740
aI7673553
aI7690287
aI7690527
aI7600469
aI7669457
aI7670865
aI7670866
aI7690682
aI7651900
aI7670231
aI7670500
aI7670502
aI7669327
aI7671169
aI7670637
aI7669787
aI7671333
aI7671334
aI7670867
aI7670868
aI7690760
aI7670248
aI7670503
aI7670504
aI7670769
aI7669460
aI7690075
aI7690076
aI7670209
aI7532413
aI7669667
aI7670797
aI7670574
aI7671301
aI7690532
aI7691261
aI7670644
aI7690980
aI7690424
aI7690530
aI7670555
aI7690749
aI7690585
aI7690586
aI7670747
aI7690799
aI7670232
aI7690978
aI7690795
aI7691079
aI7671253
aI7571141
aI7691090
aI7670227
aI7670787
aI7671270
aI7671272
aI7690790
aI7669796
aI7671267
aI7671269
aI7690875
aI7690876
aI7535380
aI7673740
aI7690878
aI7600471
aI7669659
aI7671163
aI7690285
aI7691311
aI7670063
aI7690413
aI7690482
aI7690483
aI7669664
aI7690824
aI7671367
aI7691023
aI7691024
aI7695309
aI7670592
aI7670636
aI7690540
aI7690417
aI7545101
aI7670187
aI7669648
aI7673556
aI7670333
aI7670285
aI7690877
aI7670645
aI7626749
aI7670643
aI7670222
aI7669397
aI7690399
aI7673544
aI7691341
aI7669977
aI7690393
aI7690452
aI7690400
aI7690514
aI7690753
aI7690083
aI7670318
aI7690152
aI7690450
aI7818475
aI7818043
aI7680051
aI7810072
aI7578543
aI7508308
aI7704357
aI7664292
aI7660767
aI7808286
aI7625962
aI7669319
aI7669306
aI7704146
aI7704143
aI7704165
aI7669268
aI7701965
aI7704223
aI7701937
aI7700754
aI7700629
aI7701489
aI7701616
aI7700933
aI7700761
aI7701399
aI7701437
aI7701435
aI7701419
aI7700386
aI7700389
aI7700909
aI7704807
aI7704592
aI7700902
aI7701650
aI7704486
aI7703855
aI7704406
aI7704401
aI7700353
aI7704490
aI7699572
aI7699681
aI7699876
aI7699948
aI7701089
aI7701641
aI7702598
aI7818747
aI7669310
aI7669312
aI7669271
aI7516380
aI7516381
aI7704181
aI7704287
aI7515304
aI7576310
aI7584221
aI7578525
aI7577771
aI7508412
aI7631653
aI7704503
aI7704745
aI7704726
aI7704386
aI7704587
aI7701832
aI7702748
aI7699917
aI7699933
aI7669267
aI7700519
aI7669281
aI7669288
aI7669277
aI7669297
aI7669275
aI7789740
aI7704498
aI7704555
aI7701816
aI7584641
aI7565199
aI7577765
aI7577787
aI7586843
aI7562761
aI7515066
aI7515302
aI7516289
aI7818813
aI7818791
aI7516311
aI7805725
aI7516326
aI7516318
aI7790017
aI7790018
aI7567219
aI7566831
aI7578077
aI7691172
aI7690489
aI7691279
aI7691275
aI7819248
aI7818881
aI7818648
aI7818645
aI7673379
aI7666205
aI7562780
aI7562773
aI7562770
aI7562764
aI7562762
aI7562783
aI7638585
aI7707471
aI7579141
aI7664932
aI7704596
aI7588184
aI7702704
aI7690794
aI7690536
aI7702687
aI7576303
aI7691078
aI7690784
aI7690782
aI7702202
aI7703699
aI7690783
aI7702180
aI7690334
aI7603394
aI7818702
aI7704282
aI7702228
aI7704267
aI7704707
aI7557579
aI7557580
aI7703920
aI7670005
aI7702075
aI7690286
aI7695283
aI7703700
aI7702617
aI7805978
aI7805977
aI7808736
aI7808735
aI7812206
aI7812207
aI7808861
aI7808862
aI7808863
aI7808865
aI7808866
aI7808864
aI7813313
aI7813315
aI7813314
aI7812198
aI7812199
aI7812208
aI7812209
aI7802167
aI7801362
aI7801361
aI7801942
aI7802118
aI7802119
aI7812708
aI7812706
aI7812710
aI7812926
aI7812929
aI7812668
aI7817914
aI7817913
aI7818532
aI7691260
aI7690078
aI7600370
aI7600371
aI7600367
aI7600369
aI7600368
aI7799405
aI7606035
aI7808450
aI7812923
aI7810071
aI7800806
aI7793768
aI7789727
aI7787310
aI7786616
aI7786636
aI7798309
aI7669981
aI7670772
aI7670780
aI7669938
aI7670863
aI7671278
aI7671279
aI7669623
aI7678529
aI7669261
aI7669340
aI7699429
aI7699413
aI7699431
aI7700524
aI7700460
aI7700346
aI7700605
aI7700685
aI7700832
aI7700826
aI7701226
aI7701237
aI7701358
aI7701331
aI7703440
aI7703023
aI7703024
aI7701179
aI7703581
aI7703756
aI7703755
aI7703509
aI7703510
aI7702912
aI7703188
aI7699766
aI7699508
aI7699879
aI7699945
aI7699562
aI7699997
aI7702510
aI7701012
aI7702796
aI7702775
aI7702040
aI7702030
aI7701947
aI7702467
aI7704070
aI7704071
aI7704736
aI7704750
aI7704734
aI7704739
aI7704740
aI7704752
aI7701813
aI7704529
aI7704527
aI7704519
aI7704518
aI7704597
aI7704601
aI7704610
aI7704720
aI7704729
aI7704721
aI7704724
aI7704723
aI7704614
aI7704615
aI7704072
aI7704073
aI7704076
aI7704077
aI7704082
aI7704085
aI7704677
aI7704674
aI7704061
aI7701824
aI7704709
aI7701806
aI7701809
aI7704506
aI7704508
aI7701755
aI7704414
aI7704469
aI7702328
aI7702326
aI7704341
aI7701938
aI7702165
aI7702117
aI7702147
aI7702138
aI7702140
aI7702168
aI7702141
aI7702136
aI7702115
aI7702137
aI7702158
aI7702166
aI7703667
aI7704314
aI7704315
aI7703742
aI7703744
aI7703713
aI7704448
aI7704449
aI7704097
aI7704101
aI7701892
aI7701887
aI7701898
aI7701895
aI7701899
aI7701883
aI7701888
aI7701882
aI7701881
aI7701900
aI7701481
aI7701466
aI7701392
aI7701627
aI7701507
aI7701579
aI7701455
aI7701590
aI7701398
aI7701609
aI7701630
aI7701524
aI7701920
aI7701919
aI7701370
aI7701387
aI7701363
aI7701368
aI7701388
aI7704027
aI7704016
aI7704570
aI7704823
aI7704826
aI7704822
aI7704819
aI7704833
aI7704651
aI7704798
aI7704844
aI7704168
aI7704174
aI7704171
aI7673434
aI7673675
aI7673676
aI7597774
aI7597773
aI7552739
aI7611838
aI7567207
aI7569804
aI7574456
aI7638774
aI7516067
aI7575031
aI7575029
aI7575032
aI7575004
aI7562782
aI7562776
aI7562774
aI7562772
aI7565320
aI7564545
aI7565216
aI7565221
aI7565219
aI7565202
aI7565218
aI7565222
aI7565201
aI7565203
aI7564549
aI7564548
aI7564554
aI7564558
aI7564614
aI7661189
aI7661254
aI7661249
aI7661253
aI7660777
aI7660760
aI7818256
aI7818229
aI7818153
aI7818230
aI7818234
aI7818181
aI7818122
aI7818305
aI7818007
aI7606360
aI7606362
aI7606361
aI7605278
aI7605134
aI7605156
aI7604998
aI7605196
aI7605195
aI7605877
aI7665875
aI7665874
aI7665873
aI7604518
aI7604517
aI7666018
aI7604504
aI7666023
aI7597775
aI7600364
aI7600365
aI7600385
aI7600384
aI7600383
aI7600382
aI7600381
aI7600380
aI7600379
aI7600378
aI7600377
aI7598656
aI7598655
aI7600424
aI7600426
aI7600425
aI7600470
aI7600468
aI7600467
aI7600466
aI7600465
aI7600464
aI7600463
aI7600462
aI7600461
aI7600460
aI7600459
aI7600458
aI7600457
aI7600456
aI7600455
aI7600454
aI7600453
aI7600452
aI7600451
aI7600450
aI7600449
aI7600448
aI7600447
aI7600446
aI7600445
aI7600444
aI7600443
aI7600442
aI7600441
aI7600440
aI7600439
aI7600438
aI7600437
aI7600436
aI7600435
aI7600434
aI7600433
aI7600432
aI7600431
aI7600430
aI7600429
aI7600428
aI7597528
aI7597527
aI7600496
aI7600495
aI7600494
aI7600493
aI7600492
aI7600519
aI7600518
aI7600515
aI7600516
aI7600528
aI7600527
aI7600526
aI7600543
aI7600544
aI7600545
aI7600546
aI7600547
aI7600548
aI7600552
aI7600551
aI7600550
aI7600601
aI7600600
aI7600599
aI7600626
aI7600051
aI7600639
aI7600643
aI7600657
aI7600656
aI7600653
aI7600654
aI7600161
aI7600666
aI7600665
aI7600686
aI7600683
aI7600684
aI7600689
aI7600690
aI7600692
aI7599347
aI7600718
aI7600719
aI7599977
aI7599976
aI7600720
aI7600722
aI7600721
aI7600723
aI7600724
aI7600725
aI7600726
aI7600727
aI7600728
aI7600738
aI7600739
aI7600484
aI7600485
aI7600178
aI7600486
aI7600487
aI7600489
aI7600740
aI7600741
aI7600743
aI7600349
aI7600348
aI7600347
aI7600346
aI7600744
aI7600745
aI7600730
aI7599927
aI7603090
aI7604229
aI7604230
aI7603763
aI7603764
aI7591650
aI7591649
aI7591648
aI7591656
aI7591655
aI7591654
aI7591657
aI7591653
aI7592910
aI7592909
aI7593158
aI7593157
aI7593156
aI7593162
aI7593161
aI7593160
aI7593678
aI7593677
aI7593676
aI7593675
aI7593674
aI7593673
aI7593672
aI7591455
aI7591457
aI7591229
aI7591213
aI7587015
aI7585294
aI7585293
aI7585292
aI7585291
aI7585290
aI7585289
aI7585288
aI7585287
aI7585286
aI7585285
aI7586770
aI7586769
aI7586768
aI7586767
aI7586766
aI7586765
aI7586764
aI7586763
aI7586020
aI7586019
aI7585984
aI7585987
aI7585986
aI7585989
aI7585994
aI7585993
aI7585992
aI7585991
aI7585990
aI7586002
aI7586001
aI7586000
aI7585999
aI7585998
aI7585997
aI7585996
aI7585960
aI7584799
aI7584800
aI7585801
aI7586030
aI7586029
aI7585877
aI7585878
aI7586840
aI7586841
aI7583755
aI7583754
aI7586852
aI7586851
aI7586165
aI7586166
aI7584657
aI7584656
aI7584655
aI7584218
aI7584222
aI7584220
aI7584219
aI7587111
aI7584642
aI7584640
aI7584639
aI7586215
aI7586334
aI7586333
aI7586437
aI7586436
aI7586438
aI7586475
aI7586567
aI7586680
aI7586691
aI7586690
aI7586689
aI7586688
aI7586836
aI7586863
aI7587002
aI7587001
aI7587000
aI7586999
aI7587091
aI7587093
aI7587094
aI7587095
aI7587097
aI7587096
aI7587098
aI7587099
aI7587100
aI7587107
aI7587106
aI7587105
aI7587104
aI7587103
aI7587102
aI7587101
aI7587108
aI7587109
aI7587133
aI7588186
aI7588185
aI7588734
aI7589214
aI7589215
aI7589253
aI7588791
aI7588790
aI7588788
aI7588785
aI7588784
aI7588783
aI7588781
aI7588780
aI7588778
aI7589893
aI7590019
aI7590018
aI7580689
aI7580694
aI7580693
aI7580692
aI7580691
aI7580690
aI7580722
aI7580747
aI7580699
aI7580698
aI7580697
aI7580696
aI7580767
aI7580766
aI7580765
aI7580847
aI7580846
aI7580845
aI7580876
aI7580877
aI7580874
aI7580875
aI7580879
aI7580579
aI7580578
aI7580577
aI7580576
aI7580575
aI7580574
aI7580573
aI7580572
aI7580571
aI7580570
aI7580569
aI7580568
aI7580567
aI7580566
aI7580565
aI7580564
aI7580563
aI7580562
aI7580561
aI7580560
aI7580559
aI7580558
aI7580557
aI7580556
aI7580555
aI7580554
aI7580553
aI7580661
aI7523380
aI7529517
aI7528742
aI7532594
aI7532650
aI7535367
aI7535358
aI7580270
aI7580269
aI7580268
aI7580267
aI7580275
aI7580274
aI7580179
aI7580178
aI7580284
aI7580343
aI7580306
aI7580293
aI7579562
aI7579364
aI7579363
aI7579838
aI7579837
aI7579431
aI7579342
aI7579307
aI7580001
aI7580000
aI7579265
aI7579248
aI7579247
aI7579246
aI7579245
aI7579244
aI7579243
aI7579242
aI7579241
aI7579240
aI7579239
aI7579238
aI7579237
aI7579236
aI7579235
aI7579234
aI7579233
aI7579232
aI7579231
aI7579230
aI7579229
aI7579228
aI7579227
aI7579226
aI7579225
aI7579224
aI7579223
aI7579222
aI7579221
aI7579220
aI7579219
aI7579218
aI7579217
aI7579216
aI7579215
aI7579214
aI7579213
aI7579212
aI7579211
aI7579210
aI7579209
aI7579208
aI7579207
aI7579206
aI7579205
aI7579204
aI7579203
aI7579202
aI7579201
aI7579200
aI7579199
aI7579198
aI7579197
aI7578860
aI7575895
aI7575872
aI7575997
aI7575724
aI7575565
aI7575475
aI7575472
aI7575471
aI7575470
aI7575469
aI7575468
aI7575467
aI7575466
aI7575465
aI7575464
aI7575463
aI7575462
aI7575461
aI7575460
aI7575459
aI7575458
aI7575457
aI7575456
aI7575455
aI7575454
aI7575453
aI7575452
aI7575451
aI7575450
aI7575449
aI7575448
aI7575447
aI7575445
aI7575444
aI7575441
aI7575440
aI7575439
aI7579069
aI7578976
aI7577070
aI7577251
aI7577222
aI7577221
aI7577090
aI7576764
aI7577021
aI7577004
aI7576874
aI7576846
aI7576785
aI7576956
aI7576727
aI7576602
aI7576572
aI7576555
aI7576429
aI7577256
aI7576368
aI7576329
aI7576328
aI7576327
aI7576326
aI7576325
aI7576324
aI7576323
aI7576322
aI7576321
aI7576320
aI7576319
aI7576315
aI7576314
aI7576312
aI7576311
aI7576309
aI7576308
aI7576307
aI7576306
aI7576305
aI7576304
aI7576302
aI7576301
aI7576300
aI7576297
aI7578143
aI7577993
aI7577975
aI7577858
aI7577772
aI7577770
aI7577769
aI7577768
aI7577767
aI7577766
aI7577764
aI7578760
aI7578713
aI7578651
aI7578650
aI7578649
aI7578648
aI7578647
aI7578646
aI7577739
aI7577638
aI7577628
aI7577626
aI7577625
aI7577624
aI7577623
aI7578820
aI7578783
aI7577335
aI7577312
aI7577311
aI7577544
aI7577450
aI7577369
aI7577368
aI7577367
aI7577366
aI7577365
aI7577364
aI7577363
aI7577362
aI7577361
aI7577360
aI7577359
aI7577358
aI7577357
aI7577356
aI7577355
aI7577354
aI7577353
aI7577352
aI7578317
aI7578308
aI7578270
aI7578269
aI7578268
aI7578267
aI7576256
aI7579075
aI7578562
aI7578558
aI7578555
aI7578554
aI7578553
aI7578551
aI7578550
aI7578549
aI7578548
aI7578547
aI7578546
aI7578545
aI7578544
aI7578542
aI7578500
aI7578498
aI7578501
aI7578541
aI7578540
aI7578539
aI7578538
aI7578537
aI7578536
aI7578535
aI7578534
aI7578533
aI7578532
aI7578530
aI7578529
aI7578528
aI7578524
aI7578523
aI7578522
aI7578521
aI7578520
aI7578518
aI7578517
aI7578516
aI7578515
aI7578514
aI7578513
aI7578512
aI7578511
aI7578510
aI7578509
aI7578508
aI7578507
aI7578506
aI7578505
aI7578504
aI7578503
aI7578502
aI7578497
aI7578495
aI7578494
aI7578489
aI7578487
aI7578486
aI7578485
aI7578483
aI7578479
aI7578477
aI7578476
aI7578475
aI7578474
aI7578473
aI7578472
aI7578471
aI7579085
aI7579090
aI7579089
aI7579087
aI7579086
aI7578356
aI7578463
aI7579083
aI7579084
aI7578410
aI7578572
aI7578613
aI7578612
aI7577284
aI7577274
aI7578779
aI7578620
aI7578638
aI7578637
aI7578636
aI7578635
aI7578634
aI7578633
aI7579140
aI7579139
aI7579125
aI7578642
aI7578641
aI7579118
aI7579116
aI7579107
aI7575400
aI7575360
aI7575357
aI7575356
aI7575355
aI7575354
aI7575353
aI7575273
aI7575274
aI7575254
aI7575253
aI7575252
aI7575251
aI7575011
aI7575010
aI7575009
aI7575008
aI7575007
aI7574856
aI7574705
aI7567255
aI7567254
aI7569341
aI7569340
aI7569339
aI7571140
aI7571139
aI7571138
aI7571137
aI7571136
aI7571135
aI7571134
aI7571133
aI7571132
aI7571131
aI7571130
aI7571129
aI7571128
aI7571127
aI7571126
aI7570833
aI7570832
aI7570831
aI7570830
aI7570829
aI7568585
aI7572808
aI7572806
aI7572805
aI7572803
aI7572802
aI7572801
aI7572800
aI7572799
aI7568015
aI7568014
aI7568013
aI7571024
aI7572982
aI7572981
aI7572980
aI7572979
aI7572978
aI7572977
aI7572976
aI7571601
aI7571600
aI7572785
aI7572784
aI7572939
aI7572938
aI7572937
aI7572936
aI7572935
aI7572934
aI7569807
aI7569806
aI7569805
aI7569803
aI7569802
aI7569801
aI7569800
aI7573016
aI7573005
aI7568865
aI7572028
aI7573123
aI7573122
aI7573145
aI7573153
aI7573154
aI7571691
aI7571690
aI7571689
aI7571688
aI7573180
aI7573178
aI7573177
aI7573176
aI7573175
aI7573174
aI7573173
aI7573172
aI7573171
aI7573170
aI7573167
aI7573161
aI7570350
aI7570349
aI7568510
aI7569177
aI7569176
aI7573181
aI7573182
aI7574602
aI7574603
aI7574457
aI7574214
aI7562788
aI7562784
aI7562781
aI7562779
aI7562778
aI7562777
aI7562775
aI7562771
aI7562769
aI7562768
aI7562767
aI7562766
aI7562765
aI7562763
aI7562760
aI7564417
aI7564546
aI7564559
aI7564557
aI7564556
aI7564555
aI7564551
aI7564550
aI7564553
aI7564552
aI7566345
aI7566344
aI7566343
aI7565618
aI7565220
aI7565217
aI7565215
aI7565214
aI7565213
aI7565212
aI7565211
aI7565210
aI7565209
aI7565208
aI7565207
aI7565206
aI7565205
aI7565204
aI7565200
aI7565198
aI7565197
aI7565196
aI7565195
aI7566359
aI7564992
aI7560968
aI7560964
aI7560963
aI7560962
aI7560961
aI7560960
aI7560959
aI7562190
aI7562189
aI7562188
aI7562187
aI7562186
aI7562185
aI7562184
aI7562183
aI7562182
aI7562181
aI7562180
aI7562179
aI7562178
aI7562177
aI7562176
aI7562175
aI7562174
aI7562173
aI7562172
aI7562171
aI7561717
aI7561716
aI7561714
aI7561713
aI7561698
aI7561697
aI7561696
aI7561695
aI7561694
aI7561693
aI7561692
aI7561691
aI7561690
aI7561689
aI7561688
aI7561712
aI7561711
aI7561710
aI7561709
aI7561708
aI7561707
aI7561706
aI7561705
aI7561704
aI7561703
aI7561702
aI7561701
aI7561700
aI7561687
aI7561686
aI7561685
aI7561684
aI7561683
aI7559672
aI7559671
aI7559670
aI7559669
aI7559668
aI7559667
aI7559666
aI7559665
aI7559664
aI7559663
aI7559662
aI7559661
aI7559660
aI7559659
aI7559658
aI7559657
aI7559656
aI7559655
aI7562203
aI7562202
aI7562201
aI7562200
aI7562199
aI7562198
aI7562197
aI7560478
aI7560477
aI7562584
aI7562585
aI7562495
aI7562497
aI7562496
aI7557581
aI7557577
aI7557578
aI7557597
aI7557659
aI7557658
aI7557613
aI7557718
aI7557715
aI7557714
aI7557721
aI7557720
aI7557726
aI7557729
aI7557583
aI7557552
aI7559634
aI7558875
aI7557484
aI7557218
aI7557217
aI7557216
aI7557215
aI7557214
aI7557213
aI7557212
aI7557211
aI7557210
aI7557209
aI7557515
aI7557208
aI7557207
aI7557206
aI7557203
aI7557201
aI7557200
aI7557199
aI7557198
aI7557197
aI7557196
aI7557195
aI7557194
aI7557193
aI7557192
aI7557191
aI7557190
aI7557189
aI7557188
aI7557186
aI7557205
aI7557204
aI7557531
aI7557524
aI7557536
aI7556327
aI7556326
aI7556456
aI7556455
aI7555762
aI7555761
aI7555760
aI7554554
aI7554553
aI7554552
aI7554551
aI7554550
aI7554549
aI7554548
aI7554854
aI7554853
aI7554852
aI7554851
aI7554850
aI7554849
aI7554848
aI7554847
aI7554846
aI7554845
aI7554844
aI7554843
aI7554842
aI7554841
aI7554840
aI7554839
aI7554838
aI7554837
aI7554836
aI7554835
aI7554834
aI7554833
aI7554832
aI7554831
aI7554830
aI7554829
aI7554828
aI7554827
aI7554826
aI7554825
aI7554824
aI7554823
aI7554822
aI7554821
aI7554820
aI7554819
aI7554818
aI7554817
aI7554816
aI7554815
aI7554814
aI7554813
aI7554812
aI7554811
aI7554810
aI7554110
aI7554109
aI7554108
aI7554107
aI7554106
aI7554105
aI7554104
aI7554765
aI7554788
aI7554798
aI7554797
aI7554796
aI7554795
aI7554794
aI7554793
aI7554792
aI7554803
aI7554791
aI7554790
aI7553897
aI7553896
aI7553895
aI7554902
aI7554901
aI7554960
aI7554999
aI7554998
aI7554997
aI7554996
aI7554995
aI7554702
aI7554701
aI7555008
aI7555012
aI7555011
aI7555010
aI7555009
aI7553334
aI7553321
aI7553317
aI7553316
aI7552528
aI7552533
aI7552532
aI7552531
aI7552530
aI7552529
aI7552276
aI7552584
aI7552563
aI7552538
aI7552536
aI7552535
aI7552344
aI7552343
aI7552342
aI7552675
aI7552676
aI7552674
aI7552633
aI7552737
aI7552712
aI7552711
aI7552710
aI7552695
aI7552681
aI7552680
aI7552679
aI7552678
aI7552917
aI7552743
aI7552742
aI7553272
aI7553274
aI7553273
aI7553276
aI7553275
aI7552995
aI7552994
aI7552993
aI7553001
aI7553000
aI7552999
aI7552998
aI7552997
aI7552996
aI7552992
aI7552991
aI7552990
aI7553212
aI7553213
aI7553199
aI7553200
aI7553169
aI7553265
aI7550230
aI7550569
aI7550568
aI7550567
aI7551205
aI7551206
aI7549718
aI7549717
aI7549716
aI7549715
aI7549922
aI7549714
aI7549713
aI7549924
aI7550063
aI7550062
aI7550060
aI7550059
aI7550058
aI7550057
aI7550056
aI7550053
aI7550052
aI7550051
aI7550140
aI7550139
aI7549663
aI7549662
aI7549659
aI7549658
aI7549654
aI7549653
aI7549652
aI7549651
aI7549650
aI7629669
aI7629668
aI7629667
aI7629666
aI7629665
aI7629664
aI7629444
aI7628318
aI7628317
aI7628316
aI7628315
aI7628314
aI7629495
aI7629499
aI7629498
aI7629497
aI7629538
aI7629537
aI7629536
aI7629535
aI7629534
aI7629533
aI7629532
aI7629545
aI7629544
aI7629543
aI7629564
aI7628780
aI7628779
aI7629319
aI7629318
aI7629700
aI7629701
aI7629698
aI7629699
aI7627771
aI7627632
aI7627520
aI7627637
aI7627439
aI7627642
aI7627545
aI7627515
aI7627573
aI7627761
aI7627762
aI7627756
aI7627760
aI7627759
aI7627758
aI7627757
aI7627749
aI7627755
aI7627754
aI7627753
aI7627752
aI7627751
aI7627750
aI7627723
aI7627722
aI7627721
aI7627733
aI7627735
aI7627734
aI7626999
aI7627240
aI7627241
aI7627074
aI7509046
aI7508461
aI7508460
aI7508459
aI7508457
aI7508456
aI7508455
aI7508454
aI7508453
aI7508451
aI7508450
aI7508449
aI7508448
aI7508445
aI7508444
aI7508443
aI7508442
aI7508441
aI7508440
aI7508439
aI7508438
aI7508437
aI7508436
aI7508435
aI7508434
aI7508433
aI7508432
aI7508428
aI7508426
aI7508425
aI7508424
aI7508423
aI7508422
aI7508420
aI7508419
aI7508418
aI7508417
aI7508416
aI7508415
aI7508414
aI7508413
aI7508411
aI7508410
aI7508409
aI7508408
aI7508406
aI7508405
aI7508404
aI7508402
aI7508366
aI7507849
aI7508297
aI7508296
aI7507829
aI7507828
aI7507827
aI7507826
aI7508299
aI7507995
aI7507994
aI7508304
aI7508307
aI7508306
aI7508334
aI7508335
aI7507976
aI7509313
aI7509647
aI7511276
aI7511275
aI7511490
aI7511489
aI7511520
aI7511519
aI7511607
aI7511606
aI7511611
aI7511612
aI7511874
aI7511873
aI7511872
aI7549610
aI7549609
aI7548661
aI7543809
aI7543808
aI7543807
aI7543806
aI7543805
aI7543804
aI7545337
aI7545336
aI7545335
aI7545334
aI7545333
aI7545332
aI7545331
aI7545330
aI7545329
aI7545326
aI7545327
aI7544672
aI7544668
aI7544667
aI7544666
aI7544665
aI7544664
aI7544663
aI7544662
aI7544661
aI7544660
aI7544659
aI7544658
aI7544657
aI7544656
aI7545250
aI7543594
aI7543470
aI7543469
aI7545966
aI7545965
aI7545964
aI7545963
aI7545962
aI7545961
aI7545960
aI7545959
aI7546111
aI7546110
aI7546109
aI7546108
aI7546107
aI7546106
aI7546105
aI7546104
aI7546103
aI7546102
aI7546101
aI7546100
aI7544541
aI7544540
aI7544539
aI7546191
aI7546198
aI7546190
aI7548397
aI7542329
aI7542328
aI7542327
aI7542326
aI7542325
aI7542324
aI7542323
aI7542322
aI7542321
aI7542320
aI7542319
aI7542318
aI7542317
aI7542316
aI7542315
aI7542314
aI7542313
aI7542312
aI7542311
aI7542310
aI7542309
aI7542308
aI7542307
aI7542306
aI7542305
aI7542304
aI7542203
aI7542227
aI7542226
aI7542225
aI7542224
aI7542223
aI7542222
aI7542221
aI7542220
aI7542219
aI7542218
aI7542217
aI7542216
aI7540508
aI7539990
aI7539988
aI7541564
aI7541563
aI7541970
aI7539810
aI7541160
aI7539532
aI7539531
aI7542267
aI7542260
aI7542259
aI7542258
aI7539016
aI7542443
aI7542442
aI7542441
aI7542440
aI7542449
aI7542450
aI7541860
aI7541859
aI7541858
aI7541857
aI7541344
aI7541343
aI7542520
aI7542539
aI7542538
aI7542537
aI7542536
aI7542535
aI7542534
aI7542533
aI7542532
aI7542531
aI7542530
aI7542529
aI7542528
aI7542527
aI7542526
aI7542525
aI7542524
aI7542523
aI7542522
aI7542521
aI7541715
aI7538571
aI7538570
aI7538566
aI7537357
aI7537356
aI7537355
aI7537354
aI7537272
aI7519775
aI7519734
aI7516930
aI7517189
aI7517184
aI7517183
aI7517182
aI7517181
aI7517180
aI7517179
aI7517178
aI7517177
aI7517176
aI7517175
aI7517174
aI7517173
aI7517172
aI7517171
aI7517170
aI7517169
aI7517168
aI7517167
aI7517166
aI7517165
aI7519726
aI7519725
aI7519724
aI7519796
aI7519730
aI7518908
aI7518858
aI7519253
aI7519252
aI7519250
aI7519249
aI7519247
aI7519246
aI7519245
aI7519244
aI7519243
aI7519241
aI7519239
aI7519238
aI7519237
aI7519748
aI7519747
aI7519474
aI7519791
aI7519794
aI7519793
aI7519792
aI7516644
aI7519853
aI7519850
aI7519863
aI7519864
aI7516550
aI7519866
aI7519869
aI7519871
aI7519872
aI7520351
aI7520341
aI7520840
aI7520841
aI7520782
aI7520783
aI7515843
aI7515837
aI7515822
aI7515769
aI7515760
aI7515599
aI7515598
aI7515597
aI7515596
aI7515595
aI7515594
aI7515593
aI7515592
aI7515591
aI7515590
aI7515516
aI7515512
aI7515510
aI7515509
aI7515507
aI7515505
aI7515498
aI7515492
aI7515484
aI7515483
aI7515465
aI7515464
aI7515463
aI7515454
aI7515453
aI7515452
aI7515448
aI7515449
aI7515450
aI7515445
aI7515446
aI7515444
aI7515442
aI7515440
aI7515437
aI7515436
aI7515432
aI7515430
aI7515428
aI7515413
aI7515412
aI7515411
aI7515409
aI7515405
aI7515399
aI7515393
aI7515392
aI7515389
aI7515388
aI7515383
aI7515381
aI7515377
aI7515374
aI7515373
aI7515372
aI7515367
aI7515362
aI7515352
aI7515333
aI7515332
aI7515326
aI7515327
aI7515331
aI7515315
aI7515310
aI7515309
aI7515305
aI7515306
aI7515307
aI7515298
aI7515299
aI7515300
aI7515294
aI7515293
aI7515292
aI7515264
aI7515263
aI7515262
aI7515261
aI7515108
aI7515107
aI7515106
aI7515105
aI7515104
aI7515103
aI7515102
aI7515101
aI7515100
aI7515099
aI7515098
aI7515097
aI7516068
aI7516045
aI7516000
aI7515998
aI7515995
aI7515992
aI7515991
aI7515989
aI7515984
aI7515971
aI7515961
aI7515958
aI7515957
aI7515955
aI7515941
aI7515939
aI7515937
aI7515936
aI7515935
aI7515934
aI7515933
aI7515931
aI7515921
aI7515915
aI7515885
aI7515884
aI7515883
aI7515882
aI7515881
aI7515880
aI7515879
aI7515878
aI7515877
aI7516301
aI7516295
aI7516292
aI7516291
aI7516267
aI7516266
aI7516265
aI7516264
aI7516263
aI7516262
aI7516261
aI7516260
aI7516259
aI7516258
aI7516257
aI7516256
aI7516255
aI7516254
aI7516328
aI7516325
aI7516324
aI7516322
aI7516321
aI7516320
aI7516319
aI7516317
aI7516316
aI7516314
aI7516313
aI7516312
aI7516307
aI7515082
aI7515079
aI7515072
aI7515016
aI7515015
aI7515014
aI7516155
aI7516153
aI7516229
aI7516228
aI7516384
aI7516382
aI7516379
aI7516378
aI7516377
aI7516373
aI7516370
aI7516368
aI7516366
aI7516365
aI7516221
aI7516220
aI7516219
aI7516214
aI7516213
aI7516212
aI7515582
aI7515577
aI7515575
aI7515574
aI7515572
aI7515568
aI7515567
aI7515563
aI7515562
aI7515561
aI7515560
aI7515559
aI7515558
aI7515557
aI7515545
aI7516431
aI7516418
aI7516412
aI7516411
aI7516407
aI7516442
aI7513589
aI7514120
aI7513131
aI7513130
aI7607883
aI7607882
aI7607881
aI7607880
aI7607879
aI7607878
aI7607877
aI7607876
aI7609518
aI7609154
aI7609530
aI7609531
aI7538322
aI7609770
aI7609534
aI7609533
aI7610393
aI7611204
aI7611202
aI7611201
aI7611200
aI7611199
aI7611198
aI7611197
aI7611196
aI7611195
aI7611194
aI7611193
aI7611192
aI7611191
aI7611190
aI7611189
aI7611188
aI7611187
aI7611186
aI7611185
aI7611184
aI7611183
aI7611182
aI7611181
aI7611180
aI7611179
aI7611178
aI7611177
aI7611176
aI7611175
aI7611174
aI7611173
aI7611171
aI7611170
aI7611169
aI7611168
aI7611167
aI7611166
aI7611165
aI7611164
aI7611163
aI7611162
aI7611161
aI7611339
aI7611415
aI7611784
aI7612053
aI7611829
aI7611840
aI7611839
aI7611845
aI7612056
aI7613005
aI7613158
aI7617020
aI7617019
aI7617018
aI7615129
aI7614677
aI7614676
aI7614675
aI7614674
aI7614673
aI7614672
aI7616900
aI7616899
aI7616886
aI7616885
aI7616925
aI7616911
aI7616946
aI7616961
aI7616972
aI7614504
aI7617015
aI7614203
aI7614202
aI7614201
aI7613205
aI7613180
aI7613179
aI7613178
aI7613176
aI7613175
aI7613174
aI7613173
aI7613172
aI7613171
aI7613170
aI7613169
aI7613168
aI7613167
aI7613166
aI7617392
aI7617433
aI7615507
aI7617383
aI7617381
aI7617380
aI7617379
aI7616413
aI7618528
aI7618529
aI7619221
aI7619226
aI7619225
aI7619224
aI7619223
aI7619222
aI7619814
aI7621097
aI7621098
aI7619310
aI7619314
aI7619313
aI7619312
aI7619311
aI7621117
aI7621118
aI7621123
aI7621495
aI7621494
aI7622461
aI7622460
aI7622459
aI7622458
aI7622186
aI7621900
aI7621899
aI7621898
aI7621897
aI7621896
aI7621895
aI7621894
aI7621893
aI7621892
aI7621891
aI7622713
aI7622791
aI7622790
aI7623373
aI7626055
aI7626053
aI7626056
aI7626052
aI7626051
aI7626047
aI7626046
aI7626045
aI7626044
aI7626041
aI7626038
aI7626034
aI7626024
aI7626022
aI7626020
aI7626014
aI7626012
aI7626010
aI7626008
aI7626006
aI7623841
aI7623840
aI7623839
aI7623789
aI7623760
aI7623689
aI7623595
aI7623594
aI7623582
aI7623581
aI7623580
aI7623578
aI7623577
aI7623575
aI7623574
aI7623573
aI7623572
aI7623523
aI7625530
aI7625529
aI7625527
aI7625525
aI7625524
aI7625523
aI7625521
aI7625520
aI7625519
aI7625801
aI7625800
aI7625799
aI7625798
aI7624184
aI7623858
aI7623857
aI7623856
aI7623855
aI7623854
aI7623853
aI7626071
aI7625489
aI7625487
aI7625410
aI7625409
aI7625408
aI7625407
aI7625406
aI7625405
aI7625404
aI7625030
aI7624883
aI7624834
aI7624833
aI7624698
aI7624536
aI7624454
aI7624453
aI7624452
aI7624451
aI7624450
aI7624449
aI7624448
aI7624447
aI7624446
aI7624445
aI7624444
aI7624443
aI7625303
aI7625192
aI7625073
aI7625045
aI7625044
aI7625043
aI7625042
aI7625041
aI7625038
aI7625037
aI7626125
aI7626123
aI7626222
aI7626219
aI7625964
aI7625927
aI7625918
aI7625899
aI7626290
aI7626428
aI7626427
aI7626381
aI7626380
aI7626379
aI7626378
aI7626377
aI7626376
aI7626375
aI7626374
aI7626349
aI7626246
aI7626245
aI7626234
aI7626249
aI7626469
aI7626462
aI7626460
aI7626459
aI7626512
aI7626497
aI7626965
aI7631338
aI7631337
aI7631336
aI7631335
aI7631334
aI7631333
aI7631329
aI7633051
aI7633039
aI7632112
aI7631637
aI7631636
aI7631635
aI7631634
aI7631633
aI7631632
aI7631631
aI7631630
aI7631629
aI7631628
aI7631627
aI7631626
aI7631625
aI7631623
aI7631622
aI7631621
aI7631620
aI7631619
aI7631616
aI7631618
aI7634458
aI7634457
aI7634456
aI7634455
aI7634454
aI7634453
aI7634506
aI7634505
aI7634495
aI7634494
aI7634493
aI7634492
aI7634783
aI7634879
aI7635304
aI7635485
aI7635486
aI7635488
aI7635574
aI7635797
aI7635798
aI7635800
aI7635811
aI7635476
aI7635479
aI7635478
aI7635477
aI7635483
aI7635482
aI7635481
aI7639140
aI7639139
aI7639182
aI7639198
aI7639200
aI7639238
aI7639026
aI7639025
aI7639069
aI7639068
aI7638590
aI7638589
aI7638588
aI7638587
aI7638586
aI7638584
aI7638830
aI7643075
aI7638934
aI7639421
aI7640040
aI7644294
aI7644293
aI7644292
aI7644291
aI7644290
aI7644289
aI7639425
aI7641485
aI7642783
aI7644587
aI7644515
aI7644940
aI7644939
aI7644938
aI7648437
aI7647109
aI7649068
aI7649377
aI7649375
aI7649373
aI7649372
aI7656161
aI7650273
aI7651778
aI7651821
aI7651820
aI7651819
aI7651818
aI7651817
aI7651827
aI7651848
aI7651902
aI7651845
aI7651846
aI7651927
aI7651928
aI7651685
aI7651837
aI7649257
aI7651931
aI7651930
aI7653257
aI7653256
aI7654401
aI7654399
aI7654398
aI7654396
aI7654547
aI7650161
aI7650182
aI7653858
aI7655074
aI7653587
aI7659720
aI7659721
aI7660906
aI7660905
aI7660686
aI7660702
aI7660701
aI7660700
aI7660776
aI7660775
aI7660774
aI7660773
aI7660772
aI7660771
aI7660770
aI7660769
aI7660768
aI7660766
aI7660765
aI7660763
aI7660762
aI7660761
aI7660759
aI7660758
aI7660757
aI7660756
aI7660783
aI7660782
aI7660781
aI7660786
aI7660792
aI7660791
aI7660790
aI7660789
aI7660801
aI7660800
aI7660799
aI7660798
aI7660797
aI7660796
aI7660795
aI7660896
aI7661252
aI7661251
aI7661250
aI7661255
aI7661260
aI7661259
aI7661256
aI7661257
aI7666209
aI7666208
aI7666207
aI7666206
aI7666204
aI7666203
aI7666082
aI7666199
aI7666879
aI7666869
aI7666868
aI7666848
aI7666274
aI7666889
aI7666933
aI7666972
aI7666971
aI7666968
aI7666967
aI7666966
aI7666965
aI7666964
aI7666963
aI7666940
aI7666938
aI7666937
aI7666986
aI7666981
aI7667118
aI7667117
aI7666510
aI7666690
aI7666652
aI7667395
aI7667394
aI7667408
aI7667913
aI7667697
aI7668293
aI7668294
aI7669274
aI7669257
aI7669258
aI7669260
aI7669263
aI7669283
aI7669284
aI7669282
aI7669270
aI7669298
aI7669294
aI7669314
aI7669320
aI7669317
aI7669307
aI7669308
aI7669325
aI7669324
aI7669323
aI7669316
aI7669332
aI7669329
aI7669305
aI7669331
aI7669330
aI7669311
aI7669371
aI7669373
aI7669372
aI7669352
aI7669353
aI7669356
aI7669357
aI7669365
aI7669370
aI7669368
aI7669366
aI7669364
aI7669363
aI7669359
aI7669361
aI7669385
aI7669345
aI7669342
aI7669343
aI7669350
aI7669346
aI7669347
aI7669348
aI7669339
aI7669394
aI7669395
aI7669396
aI7669425
aI7669438
aI7669415
aI7669414
aI7669424
aI7669426
aI7669442
aI7669443
aI7669412
aI7669413
aI7669416
aI7669418
aI7669429
aI7669430
aI7669433
aI7669434
aI7669445
aI7669411
aI7669417
aI7669436
aI7669420
aI7669428
aI7669439
aI7670735
aI7670736
aI7670734
aI7670737
aI7669470
aI7669473
aI7669408
aI7669409
aI7669625
aI7669626
aI7669627
aI7669628
aI7669629
aI7669450
aI7669451
aI7669452
aI7669454
aI7669456
aI7669455
aI7669475
aI7669477
aI7669478
aI7669521
aI7669463
aI7669464
aI7669479
aI7669481
aI7669482
aI7669483
aI7669484
aI7669542
aI7669546
aI7669559
aI7669561
aI7669562
aI7669539
aI7669541
aI7669543
aI7669545
aI7669547
aI7669549
aI7669550
aI7669553
aI7669555
aI7669556
aI7669557
aI7669558
aI7669560
aI7669563
aI7669564
aI7669565
aI7669567
aI7669569
aI7669568
aI7669540
aI7669544
aI7669551
aI7669534
aI7669535
aI7669537
aI7669536
aI7669571
aI7669579
aI7669581
aI7669583
aI7669572
aI7669573
aI7669574
aI7669575
aI7669576
aI7669577
aI7669580
aI7669578
aI7669582
aI7669584
aI7669588
aI7669589
aI7669591
aI7669590
aI7669592
aI7669504
aI7669506
aI7669505
aI7669507
aI7669596
aI7669599
aI7669598
aI7669602
aI7669600
aI7669601
aI7669597
aI7669530
aI7669532
aI7669603
aI7669604
aI7669605
aI7669606
aI7669526
aI7669527
aI7669611
aI7669624
aI7669609
aI7669610
aI7669614
aI7669615
aI7669616
aI7669613
aI7669621
aI7669622
aI7669612
aI7669620
aI7669617
aI7669618
aI7669630
aI7669631
aI7669634
aI7669635
aI7669496
aI7669497
aI7669632
aI7669633
aI7670569
aI7670586
aI7670579
aI7670576
aI7670584
aI7670582
aI7670585
aI7670593
aI7670595
aI7670578
aI7670580
aI7670581
aI7670619
aI7670621
aI7670620
aI7670622
aI7670633
aI7670641
aI7670646
aI7669710
aI7669693
aI7669691
aI7669690
aI7669698
aI7669700
aI7669702
aI7669703
aI7669704
aI7669706
aI7669713
aI7669686
aI7669712
aI7669707
aI7670492
aI7670494
aI7670495
aI7670496
aI7670497
aI7670498
aI7670499
aI7670501
aI7669665
aI7669662
aI7669651
aI7669649
aI7669657
aI7669661
aI7669653
aI7670447
aI7670449
aI7670468
aI7670471
aI7670473
aI7670474
aI7670475
aI7670476
aI7670481
aI7670483
aI7670517
aI7670514
aI7670515
aI7670516
aI7670512
aI7670513
aI7670518
aI7670519
aI7670521
aI7670522
aI7670523
aI7670525
aI7670526
aI7670534
aI7670535
aI7670527
aI7670528
aI7670529
aI7670530
aI7670531
aI7670532
aI7670533
aI7670536
aI7670537
aI7670538
aI7670539
aI7670540
aI7670541
aI7670613
aI7670786
aI7670794
aI7670795
aI7670796
aI7670799
aI7670801
aI7670804
aI7670800
aI7670802
aI7669960
aI7669962
aI7669963
aI7669973
aI7669986
aI7669987
aI7669989
aI7669990
aI7669992
aI7670006
aI7669939
aI7669947
aI7670026
aI7670027
aI7669971
aI7670009
aI7670008
aI7670038
aI7669955
aI7669956
aI7669964
aI7669968
aI7669974
aI7669975
aI7669978
aI7669979
aI7669980
aI7669982
aI7669983
aI7669984
aI7669991
aI7669993
aI7669994
aI7669996
aI7669997
aI7669998
aI7670003
aI7670010
aI7670011
aI7670013
aI7669931
aI7669932
aI7669934
aI7669935
aI7669937
aI7669940
aI7669941
aI7669942
aI7669944
aI7669949
aI7669950
aI7669951
aI7669952
aI7669953
aI7670014
aI7670015
aI7670017
aI7670016
aI7670018
aI7670019
aI7670020
aI7670021
aI7670023
aI7670025
aI7670029
aI7670030
aI7670032
aI7670033
aI7670043
aI7670045
aI7670046
aI7670047
aI7670048
aI7669946
aI7670040
aI7670044
aI7670323
aI7670325
aI7670328
aI7670329
aI7670326
aI7670327
aI7670324
aI7669517
aI7669519
aI7669518
aI7670630
aI7670441
aI7670442
aI7670872
aI7670869
aI7670337
aI7670338
aI7670351
aI7670352
aI7670353
aI7670360
aI7670362
aI7670364
aI7670366
aI7670367
aI7670368
aI7670370
aI7670371
aI7670373
aI7670377
aI7670381
aI7670382
aI7670383
aI7670384
aI7670385
aI7670388
aI7670390
aI7670411
aI7670412
aI7670414
aI7670415
aI7670391
aI7670392
aI7670417
aI7670419
aI7670396
aI7670397
aI7670398
aI7670400
aI7670401
aI7670403
aI7670405
aI7670408
aI7670420
aI7670421
aI7670422
aI7670253
aI7670254
aI7670257
aI7670207
aI7670163
aI7670164
aI7670165
aI7670170
aI7670177
aI7670181
aI7670182
aI7670191
aI7670194
aI7670202
aI7670203
aI7670211
aI7670258
aI7670263
aI7670266
aI7670267
aI7670268
aI7670270
aI7670271
aI7670275
aI7670208
aI7670237
aI7669999
aI7670035
aI7669747
aI7669753
aI7670062
aI7669675
aI7669681
aI7669682
aI7669683
aI7669680
aI7669678
aI7669677
aI7669676
aI7670313
aI7670320
aI7670321
aI7670322
aI7670314
aI7670315
aI7670316
aI7670317
aI7670319
aI7670508
aI7670506
aI7670669
aI7670670
aI7670678
aI7670679
aI7670680
aI7670682
aI7670688
aI7670692
aI7670694
aI7670695
aI7670685
aI7670691
aI7670748
aI7670750
aI7670752
aI7670753
aI7670754
aI7670751
aI7670759
aI7670760
aI7670765
aI7670766
aI7670768
aI7670861
aI7670862
aI7670798
aI7670860
aI7670847
aI7670848
aI7670850
aI7670056
aI7670558
aI7670560
aI7670556
aI7670561
aI7670562
aI7670563
aI7670564
aI7670116
aI7670117
aI7670118
aI7670286
aI7670287
aI7670616
aI7670653
aI7670654
aI7670655
aI7670656
aI7670783
aI7670774
aI7670775
aI7670776
aI7670777
aI7670778
aI7670779
aI7670782
aI7670784
aI7670785
aI7670781
aI7670853
aI7670855
aI7670856
aI7670864
aI7670598
aI7670599
aI7670600
aI7670603
aI7670606
aI7670607
aI7670608
aI7670609
aI7670790
aI7670791
aI7670805
aI7670806
aI7670857
aI7670858
aI7669490
aI7670650
aI7670651
aI7670652
aI7670088
aI7670090
aI7670094
aI7670089
aI7670093
aI7670091
aI7670092
aI7670034
aI7669948
aI7671213
aI7671214
aI7671237
aI7671244
aI7671158
aI7671161
aI7671159
aI7671264
aI7671258
aI7671248
aI7671249
aI7671250
aI7671254
aI7671255
aI7671252
aI7671259
aI7671263
aI7671257
aI7671265
aI7670897
aI7669486
aI7669495
aI7669487
aI7669488
aI7669489
aI7669491
aI7669492
aI7669493
aI7671316
aI7671317
aI7671318
aI7670987
aI7671019
aI7670959
aI7670965
aI7670989
aI7670999
aI7671001
aI7671007
aI7671015
aI7671020
aI7670895
aI7670896
aI7671023
aI7671038
aI7671037
aI7671039
aI7671061
aI7671076
aI7670924
aI7670926
aI7670929
aI7670969
aI7670971
aI7670940
aI7670941
aI7670974
aI7670978
aI7670956
aI7670967
aI7671021
aI7670898
aI7671031
aI7671033
aI7671035
aI7671043
aI7671050
aI7671052
aI7671104
aI7671106
aI7670908
aI7670913
aI7670914
aI7670918
aI7670921
aI7670932
aI7670936
aI7671109
aI7671116
aI7670960
aI7670942
aI7670976
aI7670979
aI7671070
aI7670981
aI7670982
aI7670991
aI7671004
aI7671080
aI7671083
aI7671087
aI7671089
aI7671093
aI7671100
aI7671102
aI7670907
aI7670911
aI7670916
aI7670917
aI7670922
aI7670923
aI7670925
aI7671108
aI7671111
aI7670968
aI7670961
aI7670963
aI7670972
aI7670973
aI7670944
aI7670945
aI7670946
aI7670986
aI7670995
aI7671005
aI7670882
aI7670885
aI7670888
aI7670894
aI7671036
aI7671041
aI7671046
aI7671054
aI7671057
aI7671062
aI7671063
aI7671065
aI7671066
aI7671071
aI7671077
aI7671078
aI7671079
aI7671084
aI7671088
aI7671097
aI7671099
aI7670943
aI7670890
aI7671032
aI7671040
aI7670910
aI7671114
aI7671011
aI7671012
aI7670880
aI7670889
aI7670891
aI7670900
aI7671030
aI7671034
aI7671058
aI7671060
aI7671068
aI7671074
aI7671092
aI7670915
aI7670920
aI7670939
aI7671348
aI7671349
aI7671350
aI7671351
aI7671352
aI7671353
aI7671358
aI7671361
aI7671362
aI7671164
aI7671165
aI7671167
aI7671180
aI7671181
aI7671268
aI7671280
aI7671281
aI7671282
aI7671150
aI7671194
aI7671195
aI7671196
aI7671197
aI7671190
aI7671191
aI7671192
aI7671193
aI7671229
aI7671230
aI7671273
aI7671274
aI7671277
aI7671276
aI7671319
aI7671320
aI7671137
aI7671103
aI7670970
aI7671206
aI7671207
aI7671224
aI7671225
aI7671226
aI7671227
aI7671285
aI7671286
aI7671287
aI7671290
aI7671291
aI7671292
aI7671308
aI7671309
aI7671310
aI7671312
aI7671313
aI7671306
aI7673663
aI7673664
aI7673780
aI7673782
aI7673781
aI7673763
aI7673765
aI7673764
aI7673384
aI7673386
aI7673385
aI7673387
aI7673394
aI7673396
aI7673397
aI7673395
aI7673374
aI7673375
aI7673449
aI7673450
aI7673647
aI7673646
aI7673645
aI7673644
aI7673404
aI7673409
aI7673408
aI7673407
aI7673406
aI7673405
aI7673855
aI7673701
aI7673698
aI7673694
aI7673688
aI7673284
aI7673298
aI7673297
aI7673296
aI7673293
aI7673292
aI7673291
aI7673290
aI7673288
aI7673287
aI7673286
aI7673276
aI7673275
aI7673281
aI7673278
aI7673277
aI7673274
aI7673273
aI7673272
aI7673271
aI7673239
aI7673269
aI7673268
aI7673265
aI7673264
aI7673263
aI7673262
aI7673260
aI7673259
aI7673257
aI7673256
aI7673255
aI7673253
aI7673250
aI7673249
aI7673248
aI7673247
aI7673246
aI7673243
aI7673242
aI7673241
aI7673300
aI7673289
aI7673267
aI7673279
aI7673631
aI7673637
aI7673636
aI7673635
aI7673633
aI7673634
aI7673632
aI7673041
aI7673861
aI7673862
aI7673863
aI7673865
aI7673864
aI7673738
aI7673737
aI7673736
aI7673735
aI7673734
aI7673732
aI7673733
aI7673731
aI7673730
aI7673729
aI7673728
aI7673727
aI7673726
aI7673725
aI7673723
aI7673403
aI7673456
aI7673459
aI7673458
aI7673457
aI7673382
aI7673383
aI7673372
aI7673373
aI7673624
aI7673625
aI7673718
aI7673719
aI7673720
aI7673721
aI7673852
aI7673853
aI7673512
aI7673513
aI7673827
aI7673815
aI7673817
aI7673816
aI7673790
aI7673791
aI7673813
aI7673814
aI7673629
aI7673630
aI7673678
aI7673677
aI7673051
aI7673052
aI7673540
aI7673541
aI7673542
aI7673824
aI7673371
aI7673370
aI7673368
aI7673369
aI7673367
aI7673366
aI7673365
aI7673670
aI7673672
aI7673671
aI7673681
aI7673682
aI7673843
aI7673844
aI7672963
aI7672964
aI7673435
aI7673572
aI7673571
aI7673569
aI7673568
aI7673567
aI7673566
aI7673565
aI7673563
aI7673560
aI7673561
aI7673559
aI7673558
aI7673557
aI7673555
aI7673554
aI7673552
aI7673548
aI7673546
aI7673545
aI7673753
aI7673755
aI7673749
aI7673757
aI7673774
aI7673775
aI7672933
aI7678519
aI7678526
aI7678532
aI7681875
aI7681849
aI7687707
aI7687663
aI7687664
aI7689814
aI7689570
aI7691074
aI7691072
aI7691053
aI7691034
aI7691068
aI7691037
aI7691033
aI7691049
aI7691050
aI7691051
aI7691047
aI7691042
aI7690511
aI7690222
aI7690219
aI7690204
aI7690221
aI7690218
aI7690216
aI7690213
aI7690211
aI7690208
aI7690207
aI7690215
aI7690223
aI7690214
aI7690217
aI7690199
aI7690206
aI7690201
aI7690212
aI7690122
aI7690210
aI7690205
aI7690203
aI7689887
aI7691402
aI7691394
aI7691392
aI7691406
aI7691404
aI7691396
aI7691395
aI7691393
aI7691397
aI7691388
aI7691387
aI7691242
aI7690828
aI7690823
aI7690817
aI7691101
aI7691112
aI7691106
aI7691110
aI7698738
aI7698737
aI7698736
aI7698747
aI7698743
aI7698742
aI7698741
aI7698740
aI7698739
aI7698746
aI7691366
aI7698745
aI7691317
aI7691251
aI7691083
aI7691091
aI7691085
aI7691080
aI7691081
aI7691093
aI7691096
aI7691089
aI7691087
aI7691086
aI7691084
aI7691077
aI7691095
aI7691076
aI7690997
aI7690998
aI7690999
aI7690990
aI7690923
aI7690917
aI7690903
aI7690924
aI7690906
aI7690911
aI7690916
aI7690897
aI7690110
aI7690806
aI7690813
aI7690870
aI7690864
aI7690862
aI7690861
aI7690860
aI7690857
aI7690856
aI7690851
aI7690850
aI7690848
aI7690847
aI7690854
aI7690866
aI7690744
aI7690647
aI7690649
aI7690608
aI7690601
aI7690603
aI7690615
aI7690611
aI7690609
aI7690621
aI7690962
aI7690441
aI7690437
aI7690447
aI7690443
aI7690436
aI7690433
aI7690432
aI7690431
aI7690439
aI7690444
aI7690445
aI7690442
aI7690440
aI7690420
aI7690418
aI7690416
aI7690414
aI7690412
aI7690410
aI7690409
aI7690408
aI7690404
aI7690402
aI7690401
aI7690396
aI7690394
aI7690405
aI7690377
aI7690306
aI7690308
aI7690301
aI7690303
aI7690279
aI7690191
aI7690176
aI7690171
aI7690070
aI7690071
aI7690030
aI7690026
aI7690025
aI7690023
aI7690022
aI7690021
aI7689856
aI7689848
aI7690242
aI7690239
aI7690236
aI7690230
aI7690229
aI7690243
aI7690240
aI7690232
aI7690241
aI7690238
aI7690237
aI7690231
aI7690656
aI7690654
aI7690053
aI7690060
aI7690057
aI7691419
aI7691416
aI7691415
aI7691414
aI7691412
aI7691147
aI7691145
aI7691127
aI7691124
aI7691132
aI7691148
aI7691126
aI7691129
aI7689938
aI7689933
aI7689917
aI7689902
aI7689903
aI7690553
aI7690557
aI7690549
aI7690555
aI7690552
aI7690554
aI7690548
aI7689960
aI7689961
aI7690676
aI7690677
aI7690523
aI7690524
aI7691195
aI7691199
aI7690904
aI7690254
aI7689846
aI7689845
aI7690966
aI7690965
aI7690967
aI7690964
aI7690969
aI7690789
aI7690791
aI7690798
aI7690792
aI7690797
aI7690793
aI7690788
aI7690786
aI7690785
aI7690796
aI7690066
aI7690068
aI7690067
aI7690274
aI7690276
aI7690275
aI7691239
aI7691240
aI7691347
aI7691348
aI7691350
aI7691367
aI7691369
aI7691368
aI7691363
aI7691364
aI7690974
aI7690683
aI7690684
aI7690628
aI7690629
aI7690476
aI7690477
aI7691335
aI7691336
aI7690589
aI7690596
aI7690595
aI7690593
aI7690590
aI7690594
aI7690592
aI7690591
aI7690496
aI7690494
aI7690493
aI7690428
aI7690429
aI7690272
aI7690271
aI7690267
aI7690270
aI7690266
aI7690565
aI7690566
aI7690264
aI7689898
aI7690880
aI7690883
aI7690882
aI7690881
aI7691378
aI7691379
aI7690638
aI7690640
aI7690641
aI7690639
aI7690631
aI7690637
aI7690636
aI7690635
aI7690632
aI7690633
aI7691228
aI7691226
aI7691224
aI7690934
aI7690937
aI7690936
aI7690935
aI7691338
aI7690468
aI7690466
aI7690470
aI7690469
aI7690898
aI7690364
aI7690360
aI7690357
aI7690346
aI7690350
aI7690368
aI7690367
aI7690007
aI7689995
aI7690002
aI7689992
aI7690008
aI7689981
aI7689980
aI7689979
aI7689976
aI7689974
aI7689990
aI7689876
aI7690780
aI7690779
aI7690776
aI7690778
aI7690775
aI7690685
aI7690690
aI7690687
aI7690689
aI7690686
aI7690688
aI7690460
aI7690459
aI7690458
aI7690456
aI7690455
aI7690453
aI7690451
aI7690449
aI7690461
aI7690457
aI7690257
aI7690261
aI7690260
aI7690259
aI7690258
aI7689837
aI7691166
aI7691173
aI7691165
aI7691163
aI7691177
aI7691445
aI7691444
aI7691357
aI7690049
aI7690050
aI7689839
aI7689842
aI7689841
aI7689840
aI7691270
aI7691268
aI7691284
aI7691283
aI7691282
aI7691281
aI7691280
aI7691278
aI7691277
aI7691274
aI7691273
aI7691272
aI7690748
aI7690765
aI7690764
aI7690757
aI7690756
aI7690761
aI7690758
aI7690752
aI7690751
aI7690755
aI7690518
aI7690522
aI7690520
aI7690519
aI7690521
aI7690538
aI7690535
aI7690534
aI7690533
aI7690542
aI7690539
aI7691160
aI7691159
aI7691158
aI7690283
aI7690282
aI7690680
aI7690679
aI7691263
aI7691262
aI7691258
aI7691256
aI7691255
aI7691254
aI7691257
aI7690298
aI7690112
aI7690135
aI7690120
aI7690140
aI7690167
aI7690164
aI7691433
aI7690046
aI7690048
aI7690047
aI7690147
aI7691120
aI7691121
aI7690064
aI7690065
aI7690288
aI7690290
aI7690292
aI7690291
aI7690289
aI7690699
aI7690700
aI7691190
aI7691193
aI7691192
aI7691188
aI7691184
aI7691183
aI7691189
aI7691187
aI7691186
aI7691185
aI7691191
aI7691182
aI7691181
aI7691180
aI7691179
aI7691435
aI7691434
aI7690499
aI7690831
aI7690832
aI7690833
aI7691264
aI7691265
aI7691266
aI7691312
aI7691313
aI7691287
aI7691288
aI7690098
aI7690097
aI7690090
aI7690091
aI7690101
aI7690981
aI7690984
aI7690982
aI7690411
aI7689910
aI7689911
aI7691233
aI7691234
aI7690109
aI7690035
aI7690036
aI7690037
aI7690340
aI7690339
aI7690044
aI7690073
aI7690074
aI7690508
aI7690158
aI7690380
aI7691408
aI7691409
aI7690958
aI7690956
aI7690954
aI7690709
aI7690708
aI7690707
aI7690705
aI7690704
aI7691207
aI7691206
aI7691205
aI7691203
aI7690579
aI7690578
aI7690577
aI7690576
aI7690575
aI7690574
aI7690643
aI7690714
aI7690711
aI7689880
aI7689881
aI7689908
aI7689909
aI7690313
aI7690314
aI7690327
aI7690333
aI7690332
aI7690331
aI7690336
aI7690335
aI7690330
aI7690329
aI7690328
aI7690946
aI7690949
aI7690947
aI7690948
aI7690487
aI7690488
aI7690485
aI7691025
aI7691117
aI7690900
aI7690979
aI7690976
aI7690391
aI7690390
aI7690389
aI7690388
aI7690427
aI7690426
aI7690529
aI7690526
aI7690463
aI7690734
aI7690732
aI7690770
aI7690769
aI7690768
aI7690767
aI7690693
aI7690695
aI7690694
aI7690727
aI7690728
aI7690311
aI7690312
aI7691001
aI7691003
aI7691002
aI7690927
aI7690928
aI7690944
aI7690945
aI7690950
aI7690951
aI7690309
aI7690310
aI7691285
aI7691286
aI7691302
aI7691301
aI7691293
aI7691292
aI7691291
aI7691290
aI7691300
aI7691299
aI7691298
aI7691297
aI7691027
aI7691029
aI7691030
aI7691028
aI7690080
aI7690081
aI7690580
aI7690584
aI7690583
aI7690582
aI7690581
aI7691370
aI7691372
aI7691371
aI7691016
aI7690567
aI7690568
aI7691305
aI7691307
aI7691306
aI7689874
aI7689867
aI7689865
aI7689862
aI7689873
aI7689872
aI7689871
aI7689870
aI7689868
aI7689866
aI7689863
aI7689864
aI7691353
aI7691354
aI7690226
aI7691017
aI7690225
aI7691150
aI7691151
aI7690079
aI7690843
aI7690845
aI7690844
aI7690879
aI7690472
aI7690473
aI7689900
aI7689901
aI7691152
aI7691156
aI7691154
aI7691155
aI7691153
aI7690383
aI7690384
aI7690987
aI7690986
aI7691019
aI7691020
aI7690153
aI7690156
aI7690155
aI7690154
aI7690168
aI7690082
aI7690415
aI7690104
aI7691208
aI7691209
aI7691340
aI7691359
aI7691362
aI7691360
aI7690133
aI7690131
aI7690899
aI7690896
aI7692253
aI7693349
aI7693342
aI7693341
aI7693344
aI7693347
aI7693343
aI7693350
aI7693345
aI7695321
aI7695320
aI7695319
aI7695318
aI7695315
aI7695314
aI7695313
aI7695312
aI7695311
aI7695308
aI7695281
aI7695279
aI7695244
aI7695316
aI7695498
aI7695499
aI7696193
aI7696773
aI7698836
aI7698837
aI7700383
aI7700416
aI7700423
aI7700417
aI7700418
aI7700419
aI7700420
aI7700421
aI7700400
aI7700382
aI7700391
aI7700394
aI7700393
aI7700387
aI7700362
aI7700410
aI7703889
aI7699388
aI7699391
aI7699397
aI7699400
aI7699405
aI7699408
aI7699430
aI7699432
aI7699433
aI7699435
aI7699437
aI7699436
aI7699448
aI7699439
aI7699428
aI7699443
aI7699442
aI7699441
aI7699445
aI7699446
aI7699447
aI7699450
aI7699423
aI7699410
aI7699407
aI7699414
aI7699415
aI7699416
aI7699418
aI7699417
aI7699409
aI7699424
aI7699425
aI7702619
aI7702614
aI7702615
aI7702616
aI7702612
aI7700074
aI7700042
aI7700048
aI7700035
aI7700040
aI7700058
aI7700060
aI7700061
aI7700063
aI7700062
aI7700064
aI7700146
aI7700119
aI7700121
aI7700124
aI7700137
aI7700127
aI7700113
aI7700502
aI7700037
aI7700052
aI7700039
aI7700069
aI7700071
aI7700073
aI7700076
aI7700078
aI7700081
aI7700082
aI7700054
aI7700077
aI7700088
aI7700092
aI7700095
aI7700097
aI7700114
aI7700090
aI7700111
aI7700147
aI7700150
aI7700151
aI7700140
aI7700172
aI7700157
aI7700182
aI7700183
aI7700194
aI7700192
aI7700193
aI7700191
aI7700189
aI7700188
aI7700181
aI7700180
aI7700179
aI7700176
aI7700175
aI7699551
aI7699590
aI7699565
aI7699601
aI7699602
aI7699599
aI7699598
aI7699594
aI7699593
aI7699511
aI7699542
aI7699538
aI7699523
aI7699535
aI7699531
aI7699528
aI7699524
aI7699633
aI7699628
aI7699617
aI7699612
aI7699610
aI7699622
aI7700003
aI7700000
aI7700001
aI7699998
aI7699996
aI7699991
aI7699990
aI7699989
aI7699986
aI7699987
aI7699982
aI7699603
aI7699619
aI7699575
aI7699574
aI7699573
aI7699570
aI7699568
aI7699564
aI7699550
aI7699559
aI7699557
aI7699553
aI7699589
aI7699587
aI7699584
aI7699582
aI7699651
aI7699637
aI7699846
aI7699845
aI7699840
aI7699839
aI7699838
aI7699837
aI7699820
aI7699835
aI7699849
aI7699830
aI7699831
aI7699829
aI7699827
aI7699826
aI7699823
aI7699822
aI7699821
aI7699866
aI7699875
aI7699872
aI7699869
aI7699868
aI7699867
aI7699865
aI7699878
aI7699861
aI7699858
aI7699859
aI7699857
aI7699852
aI7699877
aI7699787
aI7699783
aI7699781
aI7699780
aI7699791
aI7699770
aI7699769
aI7699768
aI7699765
aI7699815
aI7699811
aI7699810
aI7699804
aI7699800
aI7699799
aI7699798
aI7699797
aI7699796
aI7699793
aI7699949
aI7699946
aI7699928
aI7699936
aI7699935
aI7699932
aI7699930
aI7700020
aI7699939
aI7700028
aI7700009
aI7700013
aI7699937
aI7699907
aI7699905
aI7699836
aI7699895
aI7699893
aI7699891
aI7699889
aI7699888
aI7699887
aI7699886
aI7699908
aI7699915
aI7699911
aI7699909
aI7699910
aI7700007
aI7699777
aI7699721
aI7699720
aI7699717
aI7699715
aI7699713
aI7699962
aI7699967
aI7699963
aI7699953
aI7699979
aI7699980
aI7699970
aI7699974
aI7699973
aI7699972
aI7699971
aI7699705
aI7699699
aI7699735
aI7699742
aI7699738
aI7699663
aI7699662
aI7699659
aI7699687
aI7699680
aI7699671
aI7699762
aI7699748
aI7700854
aI7700856
aI7700855
aI7700849
aI7700848
aI7700851
aI7700850
aI7700853
aI7700829
aI7700830
aI7700824
aI7700836
aI7700838
aI7700839
aI7700841
aI7700815
aI7700806
aI7700808
aI7700810
aI7700811
aI7700823
aI7700814
aI7700816
aI7700817
aI7700818
aI7700822
aI7703995
aI7703994
aI7703996
aI7703772
aI7703776
aI7703778
aI7703781
aI7703847
aI7703752
aI7703758
aI7703757
aI7703751
aI7703763
aI7703764
aI7703766
aI7703765
aI7703769
aI7700617
aI7700609
aI7700627
aI7700631
aI7700793
aI7700794
aI7700798
aI7700688
aI7700690
aI7700689
aI7700692
aI7700695
aI7700708
aI7700697
aI7700705
aI7700660
aI7700684
aI7700613
aI7700584
aI7700586
aI7700587
aI7700593
aI7700592
aI7700594
aI7700608
aI7700596
aI7700583
aI7700598
aI7700602
aI7700607
aI7700648
aI7700633
aI7700663
aI7700666
aI7700682
aI7700659
aI7700672
aI7700673
aI7700674
aI7700681
aI7700669
aI7700638
aI7700640
aI7700639
aI7700642
aI7700646
aI7700645
aI7700643
aI7700658
aI7700635
aI7700649
aI7700653
aI7700656
aI7700657
aI7700738
aI7700741
aI7700762
aI7700749
aI7700759
aI7700750
aI7700714
aI7700717
aI7700721
aI7700720
aI7700723
aI7700727
aI7700728
aI7700729
aI7700730
aI7700731
aI7700732
aI7700734
aI7700735
aI7700763
aI7700724
aI7700767
aI7700772
aI7700771
aI7700774
aI7700775
aI7700776
aI7700777
aI7700785
aI7700789
aI7703785
aI7703902
aI7703904
aI7703905
aI7703907
aI7703906
aI7703919
aI7703899
aI7703909
aI7703911
aI7703915
aI7700427
aI7703083
aI7703082
aI7703081
aI7703079
aI7703075
aI7703076
aI7703077
aI7703106
aI7703087
aI7703119
aI7703117
aI7703118
aI7703110
aI7703109
aI7703107
aI7703120
aI7703105
aI7703104
aI7703103
aI7703089
aI7703096
aI7703140
aI7703138
aI7703136
aI7703122
aI7703145
aI7703134
aI7703131
aI7703130
aI7703125
aI7703153
aI7703163
aI7703161
aI7703158
aI7703149
aI7703147
aI7700859
aI7700861
aI7700860
aI7700863
aI7700865
aI7700864
aI7700867
aI7700866
aI7700874
aI7700868
aI7700858
aI7700869
aI7700870
aI7702989
aI7702983
aI7702981
aI7702982
aI7702980
aI7702979
aI7702997
aI7702996
aI7702995
aI7702994
aI7699482
aI7699480
aI7699481
aI7699478
aI7699477
aI7699475
aI7699473
aI7699470
aI7699483
aI7702267
aI7702280
aI7702272
aI7702271
aI7702269
aI7702274
aI7702275
aI7702276
aI7702279
aI7702251
aI7702245
aI7702248
aI7702234
aI7702247
aI7702264
aI7702256
aI7700891
aI7700923
aI7700925
aI7700888
aI7700898
aI7700901
aI7700910
aI7700913
aI7700919
aI7700927
aI7700879
aI7700885
aI7700928
aI7700196
aI7700202
aI7700203
aI7700204
aI7700211
aI7703961
aI7703951
aI7703952
aI7703953
aI7703955
aI7703954
aI7703957
aI7703956
aI7700272
aI7700269
aI7700236
aI7700227
aI7700241
aI7700222
aI7700218
aI7700228
aI7700264
aI7700263
aI7700256
aI7700254
aI7700246
aI7700244
aI7700310
aI7700302
aI7700303
aI7700304
aI7700305
aI7700301
aI7700298
aI7700292
aI7700332
aI7700343
aI7700341
aI7700337
aI7700335
aI7700347
aI7700330
aI7700331
aI7700327
aI7700322
aI7700307
aI7700288
aI7700287
aI7700284
aI7700285
aI7700286
aI7700278
aI7700279
aI7700289
aI7699490
aI7699489
aI7699488
aI7699486
aI7699487
aI7702933
aI7702934
aI7702932
aI7702929
aI7703928
aI7703929
aI7703927
aI7701019
aI7701017
aI7701016
aI7701014
aI7701015
aI7701021
aI7701007
aI7701004
aI7701003
aI7701002
aI7701000
aI7701001
aI7700998
aI7700995
aI7700984
aI7700996
aI7700994
aI7700991
aI7700990
aI7700989
aI7700988
aI7703006
aI7703005
aI7703004
aI7703000
aI7703003
aI7703002
aI7703001
aI7703007
aI7703945
aI7701030
aI7701031
aI7701026
aI7701028
aI7703838
aI7703823
aI7703822
aI7703811
aI7703815
aI7703868
aI7703869
aI7703864
aI7703865
aI7700429
aI7700430
aI7700432
aI7700457
aI7700458
aI7700463
aI7700466
aI7700482
aI7700470
aI7700472
aI7700471
aI7700533
aI7700531
aI7700530
aI7700526
aI7700528
aI7700473
aI7700474
aI7700476
aI7700477
aI7700478
aI7700479
aI7700480
aI7700469
aI7700467
aI7700435
aI7700436
aI7700437
aI7700438
aI7700443
aI7700454
aI7700433
aI7700447
aI7700449
aI7700451
aI7700453
aI7700455
aI7700495
aI7700481
aI7700503
aI7700501
aI7700515
aI7700516
aI7700521
aI7700522
aI7700514
aI7700484
aI7700485
aI7700486
aI7700490
aI7700491
aI7700492
aI7700493
aI7700483
aI7703858
aI7703809
aI7703805
aI7703807
aI7703999
aI7704000
aI7704001
aI7704002
aI7704003
aI7704004
aI7701166
aI7701165
aI7701164
aI7703659
aI7703662
aI7703664
aI7703675
aI7703658
aI7703669
aI7703672
aI7702420
aI7702431
aI7702432
aI7702434
aI7702443
aI7702445
aI7702446
aI7703730
aI7703738
aI7703733
aI7703731
aI7703735
aI7703734
aI7703737
aI7703736
aI7701639
aI7701645
aI7701646
aI7701653
aI7701642
aI7701652
aI7701665
aI7701668
aI7701670
aI7701671
aI7701672
aI7701664
aI7701675
aI7701677
aI7701678
aI7701679
aI7701680
aI7701686
aI7701660
aI7701659
aI7701661
aI7701662
aI7701741
aI7701740
aI7701742
aI7701738
aI7701748
aI7701747
aI7701750
aI7701753
aI7701724
aI7701717
aI7701716
aI7701719
aI7701722
aI7701723
aI7701727
aI7701726
aI7701729
aI7701728
aI7701731
aI7701734
aI7701767
aI7701766
aI7701769
aI7701768
aI7701775
aI7701776
aI7701765
aI7701777
aI7701780
aI7701760
aI7701761
aI7704373
aI7701222
aI7701214
aI7701215
aI7701216
aI7701264
aI7701239
aI7701242
aI7701245
aI7701244
aI7701258
aI7701224
aI7701360
aI7701361
aI7701341
aI7701329
aI7701332
aI7701335
aI7701337
aI7701336
aI7701339
aI7701338
aI7701324
aI7701326
aI7701356
aI7701357
aI7701328
aI7701327
aI7701323
aI7700541
aI7700540
aI7700539
aI7700544
aI7700538
aI7701210
aI7701207
aI7702628
aI7702627
aI7702624
aI7702623
aI7702960
aI7702958
aI7702957
aI7700570
aI7700566
aI7700562
aI7700559
aI7700558
aI7703013
aI7703017
aI7703015
aI7703016
aI7703014
aI7703429
aI7703431
aI7703430
aI7703206
aI7703207
aI7703205
aI7703203
aI7702638
aI7701194
aI7701195
aI7701193
aI7700554
aI7700555
aI7700553
aI7702540
aI7702541
aI7702538
aI7702539
aI7702537
aI7702535
aI7702531
aI7702546
aI7702534
aI7702533
aI7702536
aI7703237
aI7703238
aI7703234
aI7703246
aI7703225
aI7703222
aI7703221
aI7703220
aI7703215
aI7703216
aI7703213
aI7702007
aI7704173
aI7704175
aI7704177
aI7704176
aI7702884
aI7702885
aI7702886
aI7702887
aI7702883
aI7702881
aI7702879
aI7702878
aI7702898
aI7702900
aI7702895
aI7702890
aI7702556
aI7702557
aI7702555
aI7702569
aI7701045
aI7701051
aI7701049
aI7701047
aI7701046
aI7703251
aI7702832
aI7702830
aI7700959
aI7700960
aI7700957
aI7700952
aI7700938
aI7700949
aI7700977
aI7700976
aI7700971
aI7700963
aI7700978
aI7700935
aI7702527
aI7702525
aI7702526
aI7702523
aI7702521
aI7702522
aI7702517
aI7702516
aI7702513
aI7702514
aI7702515
aI7702509
aI7702503
aI7702505
aI7702506
aI7702652
aI7702650
aI7702649
aI7703701
aI7703706
aI7703707
aI7701082
aI7701086
aI7701083
aI7701101
aI7701102
aI7701087
aI7701139
aI7701138
aI7701155
aI7701153
aI7701146
aI7701150
aI7701092
aI7701094
aI7701093
aI7701097
aI7701088
aI7701056
aI7701058
aI7701060
aI7701061
aI7701078
aI7701054
aI7701069
aI7701073
aI7701072
aI7701076
aI7701127
aI7701099
aI7701106
aI7701111
aI7701110
aI7701113
aI7701112
aI7701114
aI7701129
aI7701122
aI7702200
aI7702199
aI7702201
aI7701473
aI7701594
aI7701599
aI7701600
aI7701606
aI7701608
aI7701610
aI7701621
aI7701519
aI7701491
aI7701497
aI7701499
aI7701504
aI7701503
aI7701505
aI7701509
aI7701500
aI7701538
aI7701542
aI7701543
aI7701548
aI7701556
aI7701560
aI7701628
aI7701629
aI7701634
aI7701528
aI7701532
aI7701478
aI7701511
aI7701417
aI7701424
aI7701428
aI7701415
aI7701431
aI7701405
aI7701401
aI7701409
aI7701408
aI7701413
aI7701403
aI7701467
aI7701485
aI7701454
aI7701447
aI7701450
aI7701464
aI7701440
aI7701453
aI7701456
aI7701589
aI7701561
aI7701535
aI7701569
aI7701570
aI7701562
aI7701574
aI7701575
aI7701576
aI7701577
aI7704252
aI7704255
aI7704254
aI7704257
aI7701934
aI7701982
aI7701983
aI7702907
aI7702908
aI7702692
aI7702693
aI7702657
aI7702662
aI7702666
aI7702678
aI7702677
aI7702599
aI7703066
aI7703048
aI7703042
aI7703046
aI7703043
aI7702853
aI7702856
aI7702801
aI7702847
aI7702846
aI7702836
aI7702839
aI7702838
aI7702837
aI7702808
aI7703172
aI7703170
aI7703168
aI7703169
aI7703174
aI7703325
aI7703374
aI7703372
aI7703364
aI7703363
aI7703302
aI7703301
aI7703297
aI7703295
aI7703294
aI7703290
aI7703291
aI7703292
aI7703398
aI7703396
aI7703397
aI7703395
aI7703392
aI7703390
aI7703387
aI7703383
aI7703384
aI7703385
aI7703382
aI7703381
aI7703378
aI7703267
aI7703386
aI7703289
aI7703287
aI7703260
aI7703284
aI7703285
aI7703286
aI7703271
aI7703259
aI7703400
aI7703305
aI7703306
aI7703347
aI7703338
aI7703340
aI7703348
aI7703349
aI7703350
aI7703335
aI7703330
aI7703329
aI7703323
aI7703360
aI7703354
aI7703320
aI7703321
aI7703322
aI7703319
aI7703307
aI7703070
aI7703071
aI7703439
aI7703437
aI7703438
aI7703436
aI7703462
aI7703463
aI7703466
aI7703468
aI7703465
aI7703464
aI7702965
aI7703456
aI7703455
aI7703452
aI7703450
aI7703458
aI7703457
aI7699376
aI7702918
aI7702916
aI7702915
aI7702919
aI7702949
aI7702940
aI7702946
aI7703413
aI7703415
aI7703414
aI7703416
aI7703418
aI7703417
aI7703426
aI7703425
aI7703421
aI7703422
aI7703420
aI7703411
aI7703410
aI7703409
aI7703407
aI7703404
aI7703403
aI7703402
aI7702387
aI7702386
aI7702389
aI7702390
aI7704051
aI7704060
aI7704057
aI7702327
aI7702331
aI7702333
aI7702335
aI7702334
aI7702343
aI7702344
aI7702345
aI7702346
aI7702350
aI7702362
aI7702353
aI7702355
aI7702356
aI7702358
aI7702359
aI7702361
aI7702150
aI7702151
aI7702152
aI7702121
aI7702171
aI7702164
aI7702162
aI7702170
aI7702163
aI7702127
aI7702133
aI7702134
aI7702148
aI7702149
aI7702135
aI7702139
aI7702142
aI7702144
aI7702146
aI7702145
aI7702112
aI7702111
aI7702110
aI7702760
aI7702755
aI7702757
aI7701691
aI7701692
aI7701694
aI7701695
aI7701697
aI7701709
aI7701701
aI7701702
aI7701705
aI7701706
aI7701708
aI7702010
aI7702011
aI7702013
aI7702016
aI7702018
aI7702021
aI7702047
aI7702032
aI7702031
aI7702046
aI7702028
aI7702039
aI7703494
aI7703493
aI7703495
aI7703496
aI7703497
aI7703498
aI7703499
aI7703500
aI7703501
aI7703492
aI7703485
aI7703486
aI7703489
aI7703490
aI7703491
aI7702284
aI7702305
aI7702304
aI7702288
aI7704311
aI7704310
aI7703551
aI7703552
aI7702206
aI7703525
aI7703528
aI7703533
aI7703516
aI7703517
aI7703518
aI7703520
aI7703521
aI7702055
aI7702057
aI7702061
aI7702058
aI7703728
aI7703729
aI7703720
aI7703721
aI7703722
aI7702184
aI7702186
aI7702173
aI7702175
aI7702176
aI7702177
aI7702179
aI7703717
aI7703564
aI7703566
aI7703569
aI7703572
aI7703571
aI7703570
aI7703574
aI7703565
aI7702071
aI7702093
aI7702092
aI7702090
aI7702094
aI7702063
aI7702074
aI7702082
aI7703676
aI7703677
aI7703628
aI7703630
aI7703629
aI7704327
aI7703709
aI7703710
aI7703680
aI7703681
aI7703641
aI7703654
aI7703655
aI7703656
aI7703743
aI7704318
aI7704319
aI7703739
aI7703740
aI7703741
aI7703651
aI7703652
aI7703653
aI7704316
aI7704317
aI7703646
aI7703637
aI7704841
aI7704840
aI7704843
aI7704842
aI7703715
aI7703716
aI7703714
aI7703678
aI7702450
aI7702215
aI7702225
aI7702217
aI7702221
aI7704321
aI7704322
aI7703635
aI7703636
aI7703633
aI7703634
aI7702491
aI7702490
aI7702494
aI7702496
aI7702497
aI7702501
aI7702461
aI7702463
aI7702465
aI7702466
aI7702469
aI7702482
aI7702470
aI7702458
aI7702477
aI7702476
aI7702479
aI7702481
aI7702480
aI7702473
aI7702471
aI7702453
aI7702454
aI7703686
aI7703688
aI7703687
aI7703689
aI7703684
aI7704009
aI7702368
aI7704461
aI7704459
aI7704456
aI7704455
aI7704452
aI7704454
aI7704453
aI7704450
aI7704451
aI7702392
aI7702400
aI7702394
aI7704474
aI7704466
aI7704494
aI7704496
aI7704492
aI7704493
aI7701305
aI7701307
aI7701306
aI7701284
aI7701286
aI7701289
aI7701293
aI7701295
aI7701297
aI7701298
aI7701299
aI7701300
aI7701301
aI7701303
aI7701266
aI7701268
aI7701270
aI7701275
aI7701282
aI7704462
aI7704463
aI7704342
aI7704345
aI7704347
aI7704346
aI7704348
aI7704343
aI7704408
aI7704409
aI7704402
aI7704403
aI7704404
aI7704356
aI7704363
aI7704365
aI7702318
aI7702322
aI7701845
aI7701842
aI7701836
aI7701840
aI7701839
aI7704366
aI7704367
aI7704381
aI7704382
aI7704379
aI7704418
aI7704428
aI7704416
aI7704422
aI7704423
aI7704424
aI7704426
aI7704425
aI7704430
aI7704446
aI7704447
aI7704445
aI7702409
aI7702404
aI7702405
aI7704797
aI7704799
aI7704800
aI7704801
aI7704802
aI7704803
aI7704804
aI7704805
aI7704808
aI7704794
aI7704795
aI7704811
aI7704810
aI7704809
aI7704812
aI7704817
aI7704813
aI7704814
aI7704793
aI7704768
aI7704770
aI7704771
aI7704773
aI7704775
aI7704774
aI7704776
aI7704779
aI7704778
aI7704792
aI7704780
aI7704769
aI7704785
aI7704786
aI7704787
aI7704788
aI7704790
aI7704791
aI7704767
aI7704783
aI7704762
aI7704764
aI7704765
aI7704766
aI7704847
aI7704848
aI7704849
aI7704845
aI7704846
aI7704820
aI7704829
aI7704821
aI7704825
aI7704827
aI7704830
aI7704835
aI7704834
aI7704831
aI7704828
aI7704536
aI7704535
aI7704537
aI7704538
aI7704539
aI7704540
aI7704541
aI7704543
aI7704542
aI7704534
aI7704546
aI7704573
aI7704572
aI7704574
aI7704576
aI7704575
aI7704545
aI7704544
aI7704594
aI7704578
aI7704579
aI7704571
aI7704581
aI7704584
aI7704583
aI7704585
aI7704586
aI7704588
aI7704589
aI7704590
aI7704591
aI7704582
aI7704580
aI7704550
aI7704549
aI7704551
aI7704553
aI7704558
aI7704559
aI7704547
aI7704561
aI7704562
aI7704563
aI7704564
aI7704566
aI7704565
aI7704568
aI7704567
aI7704569
aI7704560
aI7704593
aI7704595
aI7704624
aI7704626
aI7704625
aI7704627
aI7704628
aI7704629
aI7704630
aI7704633
aI7704631
aI7704622
aI7704637
aI7704638
aI7704639
aI7704641
aI7704642
aI7704643
aI7704644
aI7704645
aI7704640
aI7704663
aI7704664
aI7704649
aI7704648
aI7704650
aI7704654
aI7704656
aI7704658
aI7704659
aI7701808
aI7701811
aI7704531
aI7704532
aI7704509
aI7704530
aI7704521
aI7704523
aI7704524
aI7704512
aI7704514
aI7704515
aI7704516
aI7704517
aI7704617
aI7704616
aI7704618
aI7704599
aI7704602
aI7704604
aI7704605
aI7704608
aI7704607
aI7704757
aI7704758
aI7704759
aI7704760
aI7704722
aI7704718
aI7704725
aI7704727
aI7704728
aI7704742
aI7704743
aI7704756
aI7704746
aI7704748
aI7704749
aI7704753
aI7704754
aI7704738
aI7704737
aI7704731
aI7704732
aI7704733
aI7701815
aI7701823
aI7701826
aI7701825
aI7701827
aI7704690
aI7704691
aI7704667
aI7704669
aI7704668
aI7704670
aI7704692
aI7704693
aI7704688
aI7704689
aI7704685
aI7704686
aI7704687
aI7704682
aI7704683
aI7704684
aI7704680
aI7704681
aI7704679
aI7704678
aI7704672
aI7704673
aI7704675
aI7704715
aI7704716
aI7704713
aI7704710
aI7704708
aI7704697
aI7704698
aI7704699
aI7704704
aI7704700
aI7704701
aI7704702
aI7704703
aI7704705
aI7704706
aI7704436
aI7704437
aI7704439
aI7704438
aI7704440
aI7704441
aI7704442
aI7704014
aI7704015
aI7704068
aI7704065
aI7704066
aI7704067
aI7704042
aI7704043
aI7704045
aI7704046
aI7704047
aI7704048
aI7704063
aI7704062
aI7704064
aI7704089
aI7704090
aI7704074
aI7704075
aI7704078
aI7704079
aI7704087
aI7704080
aI7704086
aI7704081
aI7704083
aI7704084
aI7704026
aI7704033
aI7704032
aI7704034
aI7704035
aI7704036
aI7704018
aI7704017
aI7704019
aI7704020
aI7704021
aI7704022
aI7704023
aI7701830
aI7701885
aI7701884
aI7701886
aI7701880
aI7701894
aI7701896
aI7701878
aI7701879
aI7701871
aI7701874
aI7701876
aI7701371
aI7701367
aI7701366
aI7701369
aI7701376
aI7701364
aI7701377
aI7701380
aI7701384
aI7704098
aI7704099
aI7704100
aI7704095
aI7704096
aI7701927
aI7701914
aI7701911
aI7701918
aI7701802
aI7701803
aI7701801
aI7701792
aI7701794
aI7701796
aI7704260
aI7704261
aI7704263
aI7704262
aI7704264
aI7701850
aI7701851
aI7701853
aI7701849
aI7701855
aI7701857
aI7701859
aI7701860
aI7701863
aI7701866
aI7704207
aI7704204
aI7704205
aI7704201
aI7704229
aI7704230
aI7704231
aI7704232
aI7704234
aI7704228
aI7704227
aI7704213
aI7704215
aI7704214
aI7704217
aI7704216
aI7704222
aI7704221
aI7704224
aI7704209
aI7704211
aI7704210
aI7704226
aI7704225
aI7704233
aI7704212
aI7704243
aI7704248
aI7704245
aI7704247
aI7704246
aI7704295
aI7704297
aI7704296
aI7704298
aI7704299
aI7704336
aI7704337
aI7704307
aI7704306
aI7704304
aI7704333
aI7704334
aI7701957
aI7704330
aI7704332
aI7704331
aI7704271
aI7704273
aI7704272
aI7704270
aI7704280
aI7704279
aI7704283
aI7704277
aI7704265
aI7704266
aI7701945
aI7701950
aI7701949
aI7701955
aI7701966
aI7701963
aI7704137
aI7704138
aI7704103
aI7704104
aI7704115
aI7701977
aI7704196
aI7704197
aI7704148
aI7704150
aI7704151
aI7704140
aI7704142
aI7704141
aI7704144
aI7704145
aI7704147
aI7704149
aI7704152
aI7704155
aI7704156
aI7704157
aI7704159
aI7704158
aI7704160
aI7704153
aI7704161
aI7704154
aI7704185
aI7704186
aI7702709
aI7702708
aI7702705
aI7702714
aI7702737
aI7702732
aI7702730
aI7702728
aI7702726
aI7702721
aI7702720
aI7702717
aI7702713
aI7702745
aI7702749
aI7702750
aI7702789
aI7702794
aI7702795
aI7702793
aI7702797
aI7702798
aI7702799
aI7702784
aI7702779
aI7702776
aI7702774
aI7703621
aI7703619
aI7703618
aI7703187
aI7703184
aI7703561
aI7703559
aI7703542
aI7703543
aI7703546
aI7703545
aI7703544
aI7702528
aI7702529
aI7700982
aI7702655
aI7702690
aI7702691
aI7702694
aI7702695
aI7702696
aI7702697
aI7701170
aI7701181
aI7701173
aI7701180
aI7701175
aI7701176
aI7701177
aI7702594
aI7702595
aI7702603
aI7702604
aI7704189
aI7704190
aI7702633
aI7702634
aI7703256
aI7703257
aI7703199
aI7703201
aI7703181
aI7703182
aI7703189
aI7703192
aI7703191
aI7703190
aI7703193
aI7703194
aI7703195
aI7703196
aI7702865
aI7702866
aI7702870
aI7702871
aI7702905
aI7702906
aI7702909
aI7702910
aI7702827
aI7702826
aI7702824
aI7702823
aI7702954
aI7702955
aI7702925
aI7702926
aI7702804
aI7702805
aI7702811
aI7702812
aI7702814
aI7702815
aI7702813
aI7702842
aI7702843
aI7702848
aI7702850
aI7702973
aI7702975
aI7702974
aI7702971
aI7702972
aI7703050
aI7704312
aI7704313
aI7703068
aI7703069
aI7703622
aI7703624
aI7703623
aI7703009
aI7703010
aI7703029
aI7703031
aI7703030
aI7703032
aI7703039
aI7703040
aI7703986
aI7703990
aI7703980
aI7703981
aI7703964
aI7703965
aI7703966
aI7703971
aI7703972
aI7703948
aI7703949
aI7703842
aI7703843
aI7703870
aI7703871
aI7703860
aI7703861
aI7703849
aI7703760
aI7703762
aI7703761
aI7703787
aI7703789
aI7703788
aI7703881
aI7703882
aI7703883
aI7703884
aI7703885
aI7703886
aI7703878
aI7703880
aI7703876
aI7703875
aI7703877
aI7703872
aI7703873
aI7703018
aI7702966
aI7702967
aI7703578
aI7703577
aI7703580
aI7703579
aI7703582
aI7703590
aI7703585
aI7703586
aI7703587
aI7703589
aI7703588
aI7703511
aI7703512
aI7703502
aI7703504
aI7703505
aI7703506
aI7703503
aI7705367
aI7705370
aI7705398
aI7705378
aI7705377
aI7705388
aI7705360
aI7705403
aI7705404
aI7705487
aI7705486
aI7705657
aI7705658
aI7705646
aI7705647
aI7705648
aI7705649
aI7705661
aI7705662
aI7705663
aI7705659
aI7705660
aI7705785
aI7705784
aI7705786
aI7705788
aI7705787
aI7705789
aI7705791
aI7705790
aI7705793
aI7705792
aI7705783
aI7707520
aI7707511
aI7707513
aI7707512
aI7707514
aI7707515
aI7707516
aI7707517
aI7707518
aI7707263
aI7707264
aI7707265
aI7707302
aI7707303
aI7707304
aI7707305
aI7707621
aI7707643
aI7707644
aI7707647
aI7707955
aI7707956
aI7707637
aI7707984
aI7707983
aI7707985
aI7707986
aI7707987
aI7707989
aI7707988
aI7707990
aI7707992
aI7707991
aI7707993
aI7707994
aI7707996
aI7707962
aI7707963
aI7707977
aI7707980
aI7707981
aI7707982
aI7706460
aI7706461
aI7706463
aI7706464
aI7706465
aI7706466
aI7706579
aI7706582
aI7706581
aI7706583
aI7706585
aI7706586
aI7706588
aI7706577
aI7706576
aI7706578
aI7706456
aI7706457
aI7706458
aI7706459
aI7706621
aI7706470
aI7706570
aI7706574
aI7707680
aI7707953
aI7706633
aI7706159
aI7706158
aI7706671
aI7706672
aI7706441
aI7708543
aI7708544
aI7708537
aI7708536
aI7708412
aI7708413
aI7708414
aI7708416
aI7708415
aI7708417
aI7708418
aI7708420
aI7708419
aI7708408
aI7708407
aI7708409
aI7708513
aI7708515
aI7708514
aI7708516
aI7708518
aI7708519
aI7708520
aI7708509
aI7708510
aI7708511
aI7706754
aI7706755
aI7706756
aI7706757
aI7706822
aI7706817
aI7706810
aI7706811
aI7706804
aI7706806
aI7706805
aI7706807
aI7706808
aI7706809
aI7706452
aI7706453
aI7708056
aI7708057
aI7708058
aI7708059
aI7706792
aI7706793
aI7706794
aI7706795
aI7706797
aI7706796
aI7706798
aI7706799
aI7706800
aI7706802
aI7706801
aI7706803
aI7706921
aI7706922
aI7706923
aI7706924
aI7706987
aI7706988
aI7706997
aI7707055
aI7707054
aI7707058
aI7707059
aI7707060
aI7707115
aI7707560
aI7707561
aI7707562
aI7707124
aI7707125
aI7707127
aI7707126
aI7707128
aI7707130
aI7707147
aI7707307
aI7707465
aI7707476
aI7707375
aI7707376
aI7707378
aI7707777
aI7707757
aI7707887
aI7707886
aI7707926
aI7707419
aI7707420
aI7707421
aI7708321
aI7708325
aI7708337
aI7707172
aI7707173
aI7708302
aI7708078
aI7708222
aI7707934
aI7707935
aI7708574
aI7708575
aI7708577
aI7708578
aI7708579
aI7708567
aI7708568
aI7708478
aI7708457
aI7708403
aI7708405
aI7708260
aI7708261
aI7708207
aI7708052
aI7708053
aI7786333
aI7786366
aI7786374
aI7786373
aI7786600
aI7786736
aI7786832
aI7795235
aI7793758
aI7793669
aI7793769
aI7793770
aI7793771
aI7793772
aI7793773
aI7793637
aI7793639
aI7793638
aI7789298
aI7793961
aI7794411
aI7787311
aI7787312
aI7794639
aI7794640
aI7794642
aI7794641
aI7794667
aI7789488
aI7794117
aI7793113
aI7793114
aI7793115
aI7793116
aI7794715
aI7794765
aI7792734
aI7793071
aI7790387
aI7793327
aI7792349
aI7792350
aI7787436
aI7787437
aI7787438
aI7787440
aI7790577
aI7790610
aI7790611
aI7790612
aI7790613
aI7790614
aI7790609
aI7790539
aI7790540
aI7789728
aI7790647
aI7790019
aI7790436
aI7790437
aI7790438
aI7790422
aI7790423
aI7790340
aI7789912
aI7790128
aI7790129
aI7790679
aI7790680
aI7788796
aI7788654
aI7787491
aI7787094
aI7790997
aI7790996
aI7790998
aI7796207
aI7796208
aI7795132
aI7795301
aI7795302
aI7792730
aI7791797
aI7790565
aI7792633
aI7789907
aI7789908
aI7789408
aI7789386
aI7789387
aI7789388
aI7789389
aI7789390
aI7789391
aI7789392
aI7789393
aI7789394
aI7789395
aI7789396
aI7789397
aI7789398
aI7789399
aI7789400
aI7789401
aI7789402
aI7789403
aI7789404
aI7789405
aI7789406
aI7789407
aI7787728
aI7788825
aI7788787
aI7788639
aI7788640
aI7787347
aI7787096
aI7787097
aI7790967
aI7790965
aI7790964
aI7790786
aI7794921
aI7791145
aI7791144
aI7789230
aI7789231
aI7790981
aI7790978
aI7790976
aI7795847
aI7796044
aI7796250
aI7796491
aI7796492
aI7796433
aI7796583
aI7796584
aI7796585
aI7796586
aI7797085
aI7797892
aI7798153
aI7799057
aI7799283
aI7799284
aI7799369
aI7799370
aI7799371
aI7799372
aI7798978
aI7798729
aI7798730
aI7798733
aI7798760
aI7799428
aI7799429
aI7799623
aI7799624
aI7799625
aI7799626
aI7799607
aI7800110
aI7800111
aI7799494
aI7799495
aI7799496
aI7800348
aI7800349
aI7800350
aI7800351
aI7800352
aI7800362
aI7800363
aI7800370
aI7800371
aI7800567
aI7800568
aI7800569
aI7800570
aI7800425
aI7800426
aI7800427
aI7800428
aI7800429
aI7800431
aI7800432
aI7800433
aI7800798
aI7800799
aI7800800
aI7800801
aI7800802
aI7800803
aI7800804
aI7800805
aI7800807
aI7800808
aI7800809
aI7800810
aI7800811
aI7800812
aI7800828
aI7800814
aI7800815
aI7800816
aI7800817
aI7800818
aI7800819
aI7800820
aI7800821
aI7800822
aI7800824
aI7800825
aI7800826
aI7800827
aI7800829
aI7800830
aI7800831
aI7800832
aI7800833
aI7800834
aI7800835
aI7800662
aI7800487
aI7800488
aI7800489
aI7800490
aI7800492
aI7800541
aI7800697
aI7800698
aI7800699
aI7800700
aI7800701
aI7800715
aI7800716
aI7800717
aI7800718
aI7800719
aI7800720
aI7800721
aI7800758
aI7800759
aI7800760
aI7800761
aI7800762
aI7800763
aI7800764
aI7800765
aI7800766
aI7800768
aI7800769
aI7800770
aI7800771
aI7800772
aI7800773
aI7800756
aI7800590
aI7800591
aI7800592
aI7800593
aI7800594
aI7800779
aI7800780
aI7801452
aI7801453
aI7801454
aI7801794
aI7801795
aI7802323
aI7801780
aI7801781
aI7801782
aI7800278
aI7800279
aI7801095
aI7801096
aI7801097
aI7801098
aI7801558
aI7801563
aI7800974
aI7800975
aI7800976
aI7800977
aI7801017
aI7801035
aI7801036
aI7801620
aI7801062
aI7801063
aI7801064
aI7801065
aI7801106
aI7801107
aI7801108
aI7801130
aI7801132
aI7801133
aI7801134
aI7801136
aI7801137
aI7801139
aI7801140
aI7801141
aI7801142
aI7801143
aI7801144
aI7801151
aI7801152
aI7801153
aI7801154
aI7801155
aI7801156
aI7801157
aI7801159
aI7801162
aI7801526
aI7801527
aI7801529
aI7800640
aI7798650
aI7798651
aI7798652
aI7798653
aI7798654
aI7798655
aI7798643
aI7798644
aI7798645
aI7798646
aI7798647
aI7798648
aI7798649
aI7798637
aI7798638
aI7798639
aI7798640
aI7798641
aI7798642
aI7798541
aI7803074
aI7803075
aI7803067
aI7803068
aI7803069
aI7803070
aI7803071
aI7803072
aI7803073
aI7803065
aI7803066
aI7803057
aI7803058
aI7803059
aI7803060
aI7803061
aI7803062
aI7803063
aI7803064
aI7803053
aI7803054
aI7803046
aI7803047
aI7803048
aI7803049
aI7803050
aI7803051
aI7803042
aI7803043
aI7803028
aI7803029
aI7803030
aI7803031
aI7803032
aI7803033
aI7803035
aI7803036
aI7803037
aI7803038
aI7803039
aI7799072
aI7800506
aI7801888
aI7802762
aI7799505
aI7799506
aI7801341
aI7801343
aI7801342
aI7801996
aI7802139
aI7801870
aI7801862
aI7801365
aI7801364
aI7801830
aI7801831
aI7801828
aI7801829
aI7802313
aI7802314
aI7802315
aI7802316
aI7802317
aI7802318
aI7800914
aI7800915
aI7800916
aI7800917
aI7800918
aI7800919
aI7800920
aI7800921
aI7800922
aI7800923
aI7800924
aI7800925
aI7800926
aI7800927
aI7800928
aI7800929
aI7800930
aI7800931
aI7801444
aI7801445
aI7801441
aI7801442
aI7801443
aI7801438
aI7801439
aI7801440
aI7801436
aI7801437
aI7801777
aI7801778
aI7801779
aI7801597
aI7801598
aI7801599
aI7801600
aI7801601
aI7801602
aI7801741
aI7801742
aI7801743
aI7801744
aI7801745
aI7801738
aI7801739
aI7801740
aI7801589
aI7801590
aI7801671
aI7801672
aI7801051
aI7801613
aI7801615
aI7801911
aI7801652
aI7801313
aI7801314
aI7801320
aI7801321
aI7801322
aI7801323
aI7801324
aI7801593
aI7801594
aI7801595
aI7801596
aI7801536
aI7803055
aI7803056
aI7803044
aI7803045
aI7803040
aI7803041
aI7802233
aI7802234
aI7802235
aI7803286
aI7803281
aI7803133
aI7803486
aI7803487
aI7803488
aI7803693
aI7803692
aI7803694
aI7803695
aI7803696
aI7803697
aI7804473
aI7804474
aI7804633
aI7804634
aI7804737
aI7804738
aI7804739
aI7804740
aI7804741
aI7804742
aI7805080
aI7805081
aI7805082
aI7805083
aI7805087
aI7805086
aI7805085
aI7805088
aI7805089
aI7805090
aI7805091
aI7805160
aI7805162
aI7805161
aI7805163
aI7805164
aI7805165
aI7805166
aI7804908
aI7804909
aI7804910
aI7804911
aI7804912
aI7804913
aI7804920
aI7805268
aI7805358
aI7805456
aI7805457
aI7805458
aI7805459
aI7805460
aI7805461
aI7805462
aI7805463
aI7805464
aI7805550
aI7805551
aI7805552
aI7805548
aI7805549
aI7805546
aI7805547
aI7805512
aI7805513
aI7805823
aI7805825
aI7805826
aI7805827
aI7805828
aI7806181
aI7806469
aI7812796
aI7806352
aI7806339
aI7806340
aI7806341
aI7807026
aI7807198
aI7807199
aI7807051
aI7807082
aI7807083
aI7807087
aI7807099
aI7812691
aI7807043
aI7808167
aI7808180
aI7808151
aI7812677
aI7812920
aI7812922
aI7808750
aI7808352
aI7809323
aI7809341
aI7809342
aI7809343
aI7809396
aI7809754
aI7809899
aI7809944
aI7810538
aI7810377
aI7810378
aI7810037
aI7810070
aI7810560
aI7812684
aI7810571
aI7810574
aI7810572
aI7810568
aI7810569
aI7813253
aI7813145
aI7813146
aI7813147
aI7813148
aI7813149
aI7813150
aI7813151
aI7813152
aI7813049
aI7813050
aI7813201
aI7813202
aI7812347
aI7812343
aI7812791
aI7812927
aI7812928
aI7812930
aI7812670
aI7812671
aI7812672
aI7812673
aI7812210
aI7812211
aI7812212
aI7812475
aI7812310
aI7812311
aI7812575
aI7811563
aI7811564
aI7811565
aI7811566
aI7811561
aI7811562
aI7811311
aI7811183
aI7811184
aI7810992
aI7811073
aI7810714
aI7810711
aI7810707
aI7810725
aI7810726
aI7814075
aI7814074
aI7814073
aI7814072
aI7814071
aI7814070
aI7813576
aI7813577
aI7813578
aI7813579
aI7813582
aI7813583
aI7813584
aI7814380
aI7814381
aI7814339
aI7814340
aI7814341
aI7814342
aI7814203
aI7814204
aI7814205
aI7814206
aI7814207
aI7814208
aI7813444
aI7813489
aI7813490
aI7814179
aI7814178
aI7814397
aI7813908
aI7813907
aI7813906
aI7813904
aI7813905
aI7813897
aI7815097
aI7814531
aI7814532
aI7813820
aI7814307
aI7813997
aI7813999
aI7814933
aI7814258
aI7814257
aI7814421
aI7814439
aI7813419
aI7813421
aI7815141
aI7814473
aI7814474
aI7815121
aI7814426
aI7814427
aI7815082
aI7814980
aI7814642
aI7814643
aI7815054
aI7815015
aI7761617
aI7761615
aI7761632
aI7761627
aI7761629
aI7761621
aI7761619
aI7760718
aI7760716
aI7761080
aI7761083
aI7757454
aI7764952
aI7763887
aI7764334
aI7764989
aI7764994
aI7758758
aI7757999
aI7758001
aI7761663
aI7761665
aI7763608
aI7765054
aI7817851
aI7817836
aI7818688
aI7818701
aI7818698
aI7817936
aI7817960
aI7818003
aI7817990
aI7818725
aI7818741
aI7818072
aI7818068
aI7818055
aI7818053
aI7818054
aI7818050
aI7818051
aI7818032
aI7818030
aI7818027
aI7818102
aI7818316
aI7818295
aI7818146
aI7818141
aI7818334
aI7818268
aI7818250
aI7818246
aI7818226
aI7818188
aI7818171
aI7818133
aI7818362
aI7818370
aI7818368
aI7818366
aI7818364
aI7818389
aI7818383
aI7818423
aI7818400
aI7818378
aI7818470
aI7818467
aI7818652
aI7818654
aI7818644
aI7818712
aI7818870
aI7818868
aI7818869
aI7818866
aI7818879
aI7818877
aI7818878
aI7818876
aI7818874
aI7818875
aI7818694
aI7818886
aI7656847
aI7660095
aI7701844
aI7703098
aI7670788
aI7670873
aI7701281
aI7669382
aI7669383
aI7670151
a.