(lp0
I10760801
aI10763052
aI10887039
aI10887131
aI10760759
aI10760724
aI10886634
aI10763057
aI10985674
aI10760965
aI10764126
aI10854773
aI10872691
aI10872599
aI10763399
aI10924897
aI10885454
aI10990146
aI10718693
aI10990042
aI10992906
aI10548071
aI10718367
aI10951846
aI10888258
aI10888315
aI10888317
aI10888307
aI10888311
aI10916258
aI10564985
aI10879429
aI10896006
aI10773795
aI10776380
aI10769348
aI10781096
aI10770983
aI10772732
aI10741936
aI10750661
aI10733077
aI10747047
aI10745735
aI10763952
aI10785792
aI10788890
aI10788958
aI10788997
aI10777697
aI10783941
aI10780334
aI10940452
aI10889012
aI10794770
aI10794400
aI10789938
aI10922444
aI10500194
aI10501288
aI10501629
aI10501630
aI10502840
aI10502844
aI10503123
aI10503132
aI10504006
aI10504007
aI10504183
aI10504184
aI10504185
aI10504339
aI10504731
aI10504791
aI10504802
aI10505103
aI10505104
aI10505107
aI10505179
aI10505180
aI10505219
aI10505226
aI10505228
aI10505239
aI10505549
aI10505551
aI10505645
aI10506553
aI10506696
aI10507837
aI10508400
aI10508706
aI10508723
aI10508724
aI10508823
aI10508824
aI10508902
aI10508904
aI10509179
aI10509217
aI10509253
aI10509254
aI10509259
aI10509264
aI10509267
aI10509270
aI10509271
aI10509284
aI10509431
aI10510133
aI10510191
aI10510297
aI10510315
aI10510333
aI10510334
aI10510362
aI10510551
aI10510552
aI10510562
aI10510563
aI10510564
aI10510920
aI10511096
aI10511097
aI10511098
aI10511128
aI10511131
aI10511139
aI10511164
aI10511167
aI10511172
aI10511661
aI10511693
aI10511721
aI10511739
aI10511740
aI10511904
aI10512070
aI10512071
aI10512156
aI10512159
aI10512173
aI10512174
aI10512175
aI10512176
aI10512178
aI10512192
aI10512193
aI10512195
aI10512199
aI10512200
aI10512205
aI10512206
aI10512210
aI10512211
aI10512223
aI10512224
aI10512227
aI10512228
aI10512230
aI10512233
aI10512260
aI10512265
aI10512266
aI10512274
aI10512280
aI10512297
aI10512354
aI10512392
aI10512418
aI10512438
aI10512440
aI10512542
aI10512547
aI10512555
aI10512570
aI10512576
aI10512581
aI10512582
aI10512591
aI10512592
aI10512595
aI10512596
aI10512607
aI10512614
aI10512615
aI10512624
aI10512637
aI10512638
aI10512640
aI10512642
aI10512644
aI10512646
aI10512647
aI10512648
aI10512651
aI10512652
aI10512679
aI10512680
aI10512735
aI10512756
aI10512803
aI10513004
aI10513167
aI10513192
aI10513318
aI10513326
aI10513327
aI10513337
aI10513338
aI10513344
aI10513345
aI10513346
aI10513347
aI10513355
aI10513408
aI10513409
aI10513410
aI10513413
aI10513415
aI10513459
aI10513460
aI10513467
aI10513475
aI10513649
aI10513810
aI10514351
aI10514424
aI10515071
aI10515329
aI10515330
aI10515370
aI10515571
aI10515635
aI10515699
aI10515916
aI10516272
aI10516371
aI10516402
aI10516934
aI10516937
aI10516940
aI10517295
aI10888243
aI10517608
aI10518305
aI10518306
aI10518307
aI10518308
aI10518399
aI10518407
aI10518417
aI10518418
aI10518419
aI10518538
aI10518539
aI10518551
aI10518608
aI10518771
aI10518841
aI10518842
aI10518843
aI10518845
aI10518913
aI10518922
aI10518994
aI10519051
aI10519066
aI10519072
aI10519099
aI10519110
aI10519113
aI10519123
aI10519129
aI10519132
aI10519148
aI10519151
aI10519189
aI10519228
aI10519229
aI10519311
aI10519312
aI10519318
aI10519323
aI10519337
aI10519341
aI10519354
aI10519355
aI10519362
aI10519368
aI10519408
aI10519409
aI10519417
aI10519470
aI10519667
aI10519762
aI10519790
aI10519801
aI10519803
aI10519808
aI10519813
aI10519815
aI10519822
aI10519824
aI10519829
aI10519837
aI10519838
aI10519845
aI10519846
aI10519862
aI10519866
aI10519867
aI10519897
aI10519899
aI10519902
aI10519911
aI10519914
aI10519930
aI10519934
aI10519935
aI10519940
aI10519941
aI10519945
aI10519948
aI10519950
aI10519951
aI10519957
aI10519958
aI10519961
aI10519962
aI10519963
aI10519964
aI10519997
aI10519998
aI10520000
aI10520002
aI10520008
aI10520010
aI10520015
aI10520027
aI10520029
aI10520030
aI10520034
aI10520035
aI10520036
aI10520037
aI10520038
aI10520039
aI10520044
aI10520047
aI10520049
aI10520051
aI10520056
aI10520063
aI10520064
aI10520070
aI10520081
aI10520109
aI10520110
aI10520111
aI10520112
aI10520115
aI10520119
aI10520120
aI10520121
aI10520122
aI10520137
aI10520141
aI10520142
aI10520295
aI10520302
aI10520333
aI10520339
aI10520340
aI10520341
aI10520342
aI10520449
aI10520496
aI10520501
aI10520502
aI10520509
aI10520510
aI10520511
aI10520512
aI10520513
aI10520514
aI10520515
aI10520524
aI10520528
aI10520529
aI10520549
aI10520553
aI10520555
aI10520556
aI10520557
aI10520558
aI10520560
aI10520571
aI10520578
aI10520581
aI10520584
aI10520693
aI10520706
aI10520713
aI10520740
aI10520758
aI10520759
aI10520768
aI10520773
aI10520774
aI10520775
aI10520822
aI10520840
aI10520845
aI10520868
aI10520869
aI10520900
aI10520901
aI10520902
aI10520927
aI10520935
aI10907927
aI10521288
aI10521289
aI10521290
aI10521407
aI10521493
aI10521509
aI10521575
aI10521587
aI10521590
aI10521640
aI10521725
aI10521819
aI10521998
aI10522128
aI10522129
aI10522130
aI10522151
aI10522176
aI10522200
aI10522240
aI10522248
aI10522250
aI10522252
aI10522260
aI10522261
aI10522270
aI10522282
aI10522284
aI10522285
aI10522333
aI10522373
aI10522395
aI10522430
aI10522439
aI10522471
aI10522660
aI10522675
aI10522715
aI10522829
aI10522869
aI10522915
aI10522960
aI10522969
aI10522970
aI10523042
aI10523092
aI10523094
aI10523097
aI10523172
aI10523186
aI10523228
aI10523341
aI10523462
aI10523503
aI10523512
aI10523529
aI10523533
aI10523534
aI10523566
aI10523588
aI10523589
aI10523594
aI10523596
aI10523601
aI10523602
aI10523603
aI10523604
aI10523606
aI10523613
aI10523615
aI10523616
aI10523630
aI10523631
aI10523634
aI10523636
aI10523653
aI10523660
aI10523702
aI10523703
aI10523743
aI10523754
aI10523758
aI10523759
aI10523843
aI10523867
aI10523883
aI10523922
aI10523924
aI10523947
aI10523998
aI10524119
aI10524151
aI10524291
aI10524334
aI10524386
aI10524389
aI10524413
aI10524414
aI10524448
aI10524468
aI10524475
aI10524545
aI10524546
aI10524610
aI10524682
aI10524694
aI10524697
aI10524699
aI10524708
aI10524713
aI10524714
aI10524719
aI10524743
aI10524810
aI10524840
aI10524970
aI10525050
aI10525052
aI10747705
aI10525104
aI10525143
aI10525147
aI10525175
aI10525176
aI10525179
aI10525180
aI10525188
aI10525189
aI10525226
aI10525231
aI10525268
aI10525269
aI10525270
aI10525271
aI10525272
aI10525273
aI10525275
aI10525276
aI10525277
aI10525278
aI10525279
aI10525280
aI10525281
aI10525282
aI10525283
aI10525284
aI10525285
aI10525286
aI10525287
aI10525288
aI10525544
aI10525545
aI10526110
aI10526531
aI10526536
aI10526668
aI10762064
aI10526680
aI10526718
aI10526722
aI10526796
aI10526832
aI10526833
aI10526880
aI10526881
aI10526900
aI10526901
aI10526911
aI10526953
aI10526954
aI10526969
aI10526990
aI10526991
aI10527049
aI10954379
aI10527072
aI10527086
aI10527087
aI10527135
aI10527137
aI10527184
aI10527212
aI10527252
aI10527287
aI10527515
aI10527516
aI10527556
aI10527558
aI10527605
aI10527663
aI10527711
aI10527728
aI10527736
aI10527751
aI10527771
aI10527772
aI10527775
aI10528103
aI10528117
aI10528175
aI10528185
aI10528189
aI10528219
aI10528231
aI10528335
aI10528337
aI10528340
aI10528354
aI10528365
aI10528372
aI10528374
aI10528388
aI10528414
aI10528420
aI10528423
aI10528425
aI10528446
aI10528448
aI10528454
aI10528455
aI10528456
aI10528461
aI10528462
aI10528463
aI10528464
aI10528465
aI10528466
aI10528467
aI10528468
aI10528469
aI10528471
aI10528472
aI10528477
aI10528484
aI10528491
aI10528492
aI10528493
aI10528497
aI10528498
aI10528499
aI10528500
aI10528501
aI10528506
aI10528518
aI10528519
aI10528520
aI10528521
aI10528522
aI10528523
aI10528526
aI10528527
aI10528528
aI10528531
aI10528532
aI10528533
aI10528535
aI10528538
aI10528539
aI10528540
aI10528541
aI10528542
aI10528543
aI10528544
aI10528545
aI10528546
aI10528547
aI10528549
aI10528550
aI10528552
aI10528553
aI10528554
aI10528555
aI10528556
aI10528557
aI10528560
aI10528561
aI10528562
aI10528563
aI10528564
aI10528565
aI10528566
aI10528567
aI10528568
aI10528569
aI10528570
aI10528571
aI10528572
aI10528573
aI10528574
aI10528575
aI10528576
aI10528577
aI10528578
aI10528579
aI10528581
aI10528582
aI10528583
aI10528584
aI10528585
aI10528586
aI10528589
aI10528590
aI10528591
aI10528592
aI10528593
aI10528594
aI10528595
aI10528597
aI10528599
aI10528600
aI10528601
aI10528603
aI10528606
aI10528607
aI10528611
aI10528612
aI10528613
aI10528615
aI10528616
aI10528618
aI10528619
aI10528620
aI10528621
aI10528622
aI10528623
aI10528626
aI10528627
aI10528635
aI10528648
aI10528651
aI10528653
aI10528667
aI10528669
aI10528671
aI10528673
aI10528675
aI10528680
aI10528683
aI10528684
aI10528685
aI10528686
aI10528687
aI10528693
aI10528696
aI10528697
aI10528698
aI10528706
aI10528707
aI10528708
aI10528709
aI10528710
aI10528711
aI10528712
aI10528713
aI10528714
aI10528715
aI10528716
aI10528718
aI10528719
aI10528720
aI10528721
aI10528722
aI10528723
aI10528725
aI10528726
aI10528727
aI10528728
aI10528730
aI10528731
aI10528732
aI10528733
aI10528734
aI10528735
aI10528736
aI10528737
aI10528738
aI10528739
aI10528740
aI10528741
aI10528742
aI10528743
aI10528744
aI10528745
aI10528746
aI10528747
aI10528748
aI10528749
aI10528750
aI10528751
aI10528759
aI10528761
aI10528766
aI10528767
aI10528768
aI10528769
aI10528771
aI10528773
aI10528774
aI10528775
aI10528776
aI10528777
aI10528778
aI10528780
aI10528781
aI10528782
aI10528783
aI10528784
aI10528785
aI10528786
aI10528787
aI10528788
aI10528789
aI10528790
aI10528791
aI10528796
aI10528797
aI10528798
aI10528799
aI10528800
aI10528802
aI10528803
aI10528804
aI10528805
aI10528806
aI10528807
aI10528808
aI10528812
aI10528813
aI10528814
aI10528815
aI10528816
aI10528817
aI10528818
aI10528819
aI10528820
aI10528821
aI10528822
aI10528823
aI10528824
aI10528827
aI10528830
aI10528832
aI10528834
aI10528835
aI10528838
aI10528844
aI10528845
aI10528848
aI10528850
aI10528851
aI10528852
aI10528853
aI10528854
aI10528855
aI10528856
aI10528857
aI10528858
aI10528859
aI10528860
aI10528861
aI10528862
aI10528863
aI10528864
aI10528865
aI10528866
aI10528867
aI10528868
aI10528869
aI10528870
aI10528871
aI10528872
aI10528873
aI10528874
aI10528875
aI10528876
aI10528877
aI10528878
aI10528879
aI10528882
aI10528883
aI10528884
aI10528885
aI10528886
aI10528887
aI10528888
aI10528889
aI10528890
aI10528891
aI10528892
aI10528893
aI10528894
aI10528895
aI10528896
aI10528897
aI10528898
aI10528899
aI10528900
aI10528901
aI10528902
aI10528903
aI10528904
aI10528905
aI10528906
aI10528907
aI10528908
aI10528912
aI10528913
aI10528916
aI10528917
aI10528918
aI10528922
aI10528925
aI10528926
aI10528927
aI10528928
aI10528929
aI10528930
aI10528931
aI10528932
aI10528933
aI10528934
aI10528935
aI10528936
aI10528937
aI10528938
aI10528939
aI10528940
aI10528941
aI10528942
aI10528943
aI10528944
aI10528945
aI10528946
aI10528947
aI10528948
aI10528949
aI10528950
aI10528951
aI10528952
aI10528954
aI10528955
aI10528956
aI10528958
aI10528959
aI10528960
aI10528961
aI10528962
aI10528963
aI10528964
aI10528965
aI10528966
aI10528967
aI10528969
aI10528970
aI10528977
aI10528978
aI10528979
aI10528980
aI10528981
aI10528982
aI10528983
aI10528984
aI10528986
aI10528987
aI10528988
aI10528989
aI10528990
aI10528991
aI10528992
aI10528993
aI10528994
aI10528995
aI10528996
aI10529010
aI10529011
aI10529012
aI10529016
aI10529017
aI10529018
aI10529019
aI10529021
aI10529022
aI10529023
aI10529024
aI10529025
aI10529026
aI10529027
aI10529091
aI10529258
aI10529259
aI10529270
aI10529299
aI10529316
aI10529362
aI10529369
aI10529673
aI10529684
aI10529685
aI10529704
aI10529706
aI10529707
aI10529757
aI10536824
aI10536902
aI10536907
aI10536925
aI10536926
aI10537319
aI10537344
aI10537347
aI10537352
aI10537360
aI10537361
aI10537367
aI10537435
aI10537444
aI10537491
aI10537550
aI10537551
aI10537560
aI10501820
aI10537599
aI10537699
aI10537767
aI10537768
aI10537821
aI10544440
aI10544512
aI10544554
aI10544626
aI10544638
aI10544652
aI10544870
aI10544954
aI10544959
aI10544960
aI10545080
aI10545092
aI10550699
aI10550700
aI10550706
aI10550740
aI10550746
aI10550757
aI10502072
aI10551052
aI10551127
aI10551303
aI10551484
aI10551859
aI10552225
aI10552233
aI10511609
aI10552408
aI10510336
aI10510337
aI10552529
aI10552826
aI10552872
aI10553085
aI10553089
aI10553097
aI10553100
aI10553116
aI10553119
aI10553123
aI10553134
aI10553145
aI10553147
aI10553151
aI10553232
aI10553247
aI10553249
aI10553253
aI10553271
aI10553273
aI10553275
aI10553277
aI10553288
aI10553326
aI10553342
aI10553291
aI10553389
aI10501881
aI10553413
aI10553544
aI10553552
aI10553570
aI10553571
aI10553573
aI10553580
aI10553604
aI10553742
aI10553874
aI10553941
aI10554010
aI10554068
aI10554128
aI10554129
aI10554210
aI10554281
aI10554283
aI10554286
aI10554396
aI10554475
aI10520753
aI10554523
aI10554667
aI10554942
aI10554971
aI10555285
aI10555449
aI10555450
aI10555485
aI10556136
aI10556447
aI10556458
aI10556464
aI10556575
aI10501531
aI10556991
aI10504341
aI10559038
aI10559333
aI10559603
aI10559674
aI10559748
aI10935589
aI10560968
aI10561569
aI10561756
aI10561779
aI10514527
aI10562169
aI10562517
aI10562533
aI10505522
aI10562777
aI10563075
aI10553657
aI10563361
aI10563543
aI10563611
aI10563794
aI10505530
aI10564606
aI10564697
aI10564704
aI10564749
aI10564898
aI10565067
aI10565080
aI10565311
aI10565440
aI10506013
aI10512412
aI10565835
aI10565879
aI10565904
aI10566120
aI10566384
aI10566385
aI10566468
aI10566545
aI10523087
aI10514524
aI10566752
aI10566776
aI10566796
aI10566806
aI10566907
aI10550974
aI10567249
aI10567335
aI10511487
aI10567716
aI10567721
aI10567736
aI10567805
aI10567831
aI10567900
aI10568058
aI10568606
aI10568664
aI10568665
aI10568666
aI10513334
aI10568862
aI10568887
aI10514432
aI10569130
aI10569197
aI10569252
aI10569253
aI10569277
aI10569278
aI10516054
aI10569785
aI10569893
aI10569900
aI10569987
aI10570098
aI10570165
aI10570166
aI10570314
aI10570333
aI10570506
aI10571068
aI10571142
aI10571306
aI10571356
aI10571431
aI10571566
aI10571641
aI10571841
aI10571856
aI10571999
aI10519289
aI10572072
aI10572118
aI10572206
aI10565556
aI10572304
aI10572305
aI10572344
aI10572345
aI10572375
aI10572386
aI10572695
aI10572696
aI10572717
aI10572772
aI10573001
aI10573038
aI10523822
aI10573507
aI10573788
aI10573943
aI10519754
aI10574460
aI10575122
aI10575155
aI10575181
aI10575182
aI10575296
aI10575521
aI10575607
aI10575706
aI10575717
aI10575765
aI10575815
aI10575828
aI10575844
aI10575847
aI10575890
aI10575941
aI10576015
aI10576016
aI10576050
aI10576058
aI10576072
aI10576078
aI10576103
aI10576121
aI10576129
aI10576131
aI10576136
aI10576193
aI10576492
aI10576571
aI10576576
aI10576674
aI10576685
aI10576897
aI10576945
aI10576946
aI10576979
aI10576989
aI10514451
aI10577080
aI10577203
aI10577211
aI10577219
aI10521171
aI10577324
aI10577369
aI10577457
aI10577515
aI10577562
aI10577576
aI10577583
aI10577584
aI10577585
aI10577588
aI10577623
aI10577747
aI10577814
aI10577873
aI10577896
aI10577933
aI10577959
aI10577971
aI10578079
aI10578080
aI10578098
aI10578181
aI10578242
aI10578358
aI10578397
aI10578398
aI10578449
aI10578462
aI10578486
aI10578592
aI10578641
aI10578754
aI10578843
aI10520086
aI10578971
aI10579021
aI10579056
aI10579207
aI10579397
aI10579407
aI10579476
aI10508644
aI10554606
aI10579615
aI10579635
aI10579636
aI10579637
aI10579638
aI10579644
aI10579673
aI10579767
aI10579790
aI10579813
aI10579858
aI10579957
aI10580019
aI10580040
aI10580053
aI10580054
aI10580138
aI10580139
aI10518596
aI10580302
aI10519446
aI10580333
aI10580368
aI10580551
aI10580804
aI10580830
aI10580843
aI10580849
aI10580915
aI10580916
aI10580918
aI10580975
aI10580986
aI10581003
aI10581005
aI10581128
aI10581141
aI10581247
aI10581255
aI10581309
aI10581363
aI10581428
aI10581429
aI10581431
aI10581433
aI10581452
aI10581456
aI10581613
aI10581614
aI10581615
aI10581671
aI10581806
aI10581869
aI10581933
aI10581934
aI10581939
aI10582175
aI10582196
aI10582197
aI10582205
aI10582211
aI10582217
aI10582286
aI10582470
aI10582471
aI10582540
aI10582549
aI10582593
aI10582824
aI10583821
aI10583860
aI10583886
aI10583900
aI10583950
aI10584052
aI10584055
aI10584056
aI10584058
aI10584062
aI10584237
aI10584404
aI10584608
aI10584642
aI10584719
aI10584721
aI10584723
aI10584727
aI10584734
aI10584849
aI10584850
aI10584851
aI10584894
aI10584962
aI10585458
aI10585473
aI10585477
aI10585521
aI10585523
aI10585746
aI10585904
aI10586501
aI10586736
aI10587084
aI10587210
aI10587219
aI10587252
aI10587255
aI10587302
aI10587303
aI10587305
aI10587311
aI10587384
aI10587385
aI10587655
aI10587658
aI10587671
aI10587954
aI10587958
aI10587984
aI10588012
aI10588217
aI10588226
aI10588380
aI10588384
aI10588509
aI10588515
aI10588567
aI10588589
aI10588767
aI10588842
aI10588843
aI10588969
aI10589006
aI10589238
aI10589239
aI10589351
aI10582846
aI10589843
aI10589929
aI10589939
aI10590019
aI10590029
aI10590031
aI10590085
aI10519710
aI10590436
aI10590437
aI10590649
aI10590671
aI10590750
aI10590759
aI10590768
aI10590775
aI10590890
aI10591041
aI10591238
aI10591454
aI10591478
aI10591501
aI10591504
aI10591745
aI10591844
aI10591871
aI10591913
aI10591990
aI10592339
aI10592350
aI10592360
aI10592426
aI10592430
aI10592449
aI10592491
aI10592512
aI10592540
aI10592542
aI10592549
aI10592562
aI10592565
aI10592584
aI10592604
aI10592606
aI10592610
aI10592619
aI10592890
aI10592892
aI10593035
aI10593233
aI10510312
aI10593555
aI10593556
aI10593557
aI10593736
aI10593793
aI10593794
aI10593818
aI10593892
aI10593910
aI10593919
aI10593969
aI10593997
aI10594066
aI10524193
aI10594130
aI10594277
aI10512216
aI10594366
aI10594375
aI10594383
aI10594384
aI10594506
aI10594508
aI10594628
aI10594629
aI10594633
aI10594634
aI10594640
aI10594693
aI10594732
aI10594884
aI10594977
aI10594986
aI10595002
aI10595003
aI10595070
aI10595073
aI10595402
aI10595681
aI10595682
aI10595901
aI10595941
aI10595942
aI10595948
aI10595987
aI10595988
aI10596212
aI10596354
aI10596355
aI10596365
aI10596427
aI10519716
aI10596507
aI10596576
aI10596597
aI10596621
aI10597110
aI10597111
aI10597557
aI10597870
aI10598772
aI10598885
aI10599493
aI10599647
aI10599667
aI10599668
aI10599765
aI10599838
aI10599853
aI10600043
aI10511140
aI10600256
aI10600528
aI10600568
aI10600571
aI10600581
aI10506341
aI10600955
aI10600997
aI10601002
aI10601004
aI10601148
aI10604859
aI10605017
aI10605345
aI10605677
aI10605823
aI10605981
aI10606192
aI10606312
aI10606319
aI10606344
aI10609512
aI10614097
aI10614258
aI10615441
aI10616491
aI10617667
aI10617778
aI10618214
aI10618575
aI10618597
aI10618853
aI10619186
aI10619895
aI10620981
aI10621598
aI10621670
aI10623923
aI10623924
aI10623955
aI10624056
aI10627034
aI10627417
aI10628722
aI10629169
aI10629284
aI10629285
aI10629325
aI10629326
aI10629327
aI10629344
aI10629363
aI10629398
aI10629413
aI10629440
aI10629441
aI10629442
aI10629444
aI10629445
aI10629538
aI10630144
aI10632022
aI10632023
aI10563845
aI10632392
aI10570238
aI10632877
aI10632881
aI10632914
aI10632918
aI10632922
aI10632964
aI10513340
aI10513341
aI10632974
aI10632979
aI10633029
aI10633094
aI10633096
aI10633104
aI10633136
aI10633139
aI10633156
aI10633189
aI10633340
aI10633452
aI10633507
aI10633510
aI10633407
aI10633748
aI10633773
aI10633405
aI10634019
aI10634020
aI10634142
aI10634218
aI10634219
aI10634220
aI10634249
aI10634257
aI10634360
aI10634376
aI10634377
aI10634696
aI10634697
aI10634779
aI10634887
aI10634889
aI10634891
aI10634893
aI10634896
aI10634898
aI10634901
aI10634909
aI10634911
aI10634913
aI10634915
aI10634918
aI10634920
aI10634922
aI10634924
aI10634926
aI10634928
aI10634931
aI10634933
aI10634942
aI10634944
aI10634946
aI10634952
aI10634954
aI10634962
aI10634981
aI10634984
aI10634985
aI10634987
aI10634989
aI10635059
aI10635061
aI10635064
aI10635070
aI10635087
aI10635089
aI10635102
aI10635103
aI10635105
aI10635107
aI10635227
aI10635263
aI10635289
aI10635333
aI10635410
aI10514434
aI10524064
aI10635502
aI10635508
aI10524065
aI10635563
aI10635610
aI10635626
aI10635638
aI10635660
aI10635666
aI10635683
aI10520619
aI10520633
aI10635704
aI10635705
aI10635714
aI10635719
aI10635722
aI10635787
aI10635788
aI10635792
aI10635793
aI10635887
aI10635973
aI10635975
aI10635983
aI10636053
aI10636055
aI10508633
aI10636091
aI10636109
aI10636113
aI10636133
aI10636134
aI10636135
aI10636220
aI10636242
aI10636244
aI10636258
aI10636261
aI10636286
aI10636287
aI10636288
aI10636294
aI10636326
aI10636327
aI10636346
aI10636370
aI10636440
aI10636503
aI10636504
aI10636583
aI10636591
aI10636594
aI10636638
aI10636639
aI10636641
aI10637727
aI10638109
aI10638265
aI10638501
aI10638716
aI10638726
aI10638727
aI10638765
aI10638780
aI10638871
aI10638876
aI10638877
aI10638894
aI10638951
aI10639056
aI10639092
aI10639093
aI10639130
aI10639205
aI10639243
aI10639316
aI10508638
aI10639366
aI10639367
aI10639448
aI10639476
aI10639540
aI10639748
aI10639788
aI10639835
aI10639881
aI10639901
aI10639983
aI10640025
aI10640026
aI10640073
aI10640151
aI10640466
aI10640664
aI10640742
aI10640743
aI10640789
aI10640790
aI10640875
aI10640906
aI10641030
aI10641041
aI10641089
aI10641149
aI10641187
aI10641199
aI10641227
aI10641408
aI10641490
aI10641511
aI10641594
aI10641716
aI10641727
aI10641728
aI10641738
aI10641757
aI10521169
aI10641792
aI10641809
aI10641816
aI10641817
aI10641829
aI10641852
aI10520104
aI10641929
aI10642081
aI10642101
aI10642116
aI10642138
aI10642139
aI10642148
aI10642527
aI10642593
aI10642596
aI10642663
aI10642743
aI10642761
aI10642766
aI10521173
aI10642833
aI10642973
aI10643206
aI10521168
aI10643287
aI10643415
aI10643459
aI10643513
aI10643565
aI10643631
aI10643751
aI10643817
aI10643836
aI10643839
aI10643850
aI10643852
aI10643888
aI10643973
aI10643977
aI10643984
aI10644069
aI10644092
aI10644094
aI10520205
aI10644122
aI10520048
aI10644144
aI10644159
aI10644165
aI10644185
aI10644189
aI10644219
aI10644225
aI10644232
aI10644433
aI10644441
aI10644478
aI10644519
aI10644556
aI10644567
aI10644612
aI10644658
aI10644741
aI10644754
aI10644757
aI10644788
aI10644796
aI10644810
aI10644868
aI10644910
aI10645001
aI10645005
aI10645027
aI10645052
aI10645062
aI10645065
aI10645068
aI10645131
aI10645133
aI10645153
aI10645171
aI10645174
aI10645218
aI10645219
aI10645253
aI10645262
aI10645284
aI10645325
aI10645334
aI10645705
aI10645711
aI10645723
aI10645746
aI10645782
aI10645876
aI10646043
aI10646136
aI10513470
aI10646158
aI10646192
aI10646408
aI10646455
aI10646664
aI10646668
aI10646927
aI10520763
aI10647005
aI10647010
aI10647011
aI10647012
aI10647073
aI10647114
aI10647165
aI10647201
aI10647230
aI10647277
aI10647387
aI10554337
aI10647544
aI10647669
aI10647695
aI10594515
aI10647726
aI10578846
aI10520597
aI10520598
aI10647801
aI10647804
aI10647855
aI10647857
aI10647887
aI10647888
aI10647895
aI10647897
aI10647932
aI10647986
aI10648035
aI10648439
aI10648460
aI10648488
aI10648513
aI10648628
aI10648629
aI10648756
aI10648768
aI10648920
aI10648928
aI10649029
aI10649030
aI10649083
aI10649086
aI10649094
aI10649222
aI10649237
aI10649238
aI10649267
aI10649274
aI10649300
aI10649327
aI10649355
aI10649357
aI10649383
aI10649405
aI10649452
aI10649462
aI10649533
aI10649567
aI10649583
aI10649640
aI10649697
aI10649721
aI10649904
aI10650079
aI10650142
aI10650146
aI10650148
aI10650206
aI10650227
aI10650420
aI10520546
aI10650633
aI10650873
aI10651798
aI10652115
aI10652116
aI10652191
aI10652203
aI10652223
aI10652269
aI10652273
aI10652302
aI10652352
aI10652593
aI10652642
aI10652930
aI10652942
aI10652957
aI10653034
aI10653038
aI10653040
aI10653092
aI10653174
aI10653258
aI10653259
aI10653305
aI10653334
aI10653336
aI10653342
aI10653397
aI10653412
aI10653413
aI10653419
aI10653422
aI10653427
aI10653470
aI10653492
aI10653543
aI10653550
aI10653552
aI10653672
aI10653695
aI10653712
aI10653973
aI10654171
aI10654172
aI10654173
aI10654263
aI10654403
aI10654404
aI10654413
aI10654414
aI10512548
aI10654547
aI10654607
aI10654627
aI10654652
aI10654662
aI10654663
aI10654665
aI10654675
aI10654694
aI10654697
aI10654805
aI10519756
aI10654814
aI10654815
aI10654821
aI10654875
aI10654891
aI10654910
aI10654920
aI10654921
aI10654926
aI10654927
aI10654928
aI10654998
aI10655002
aI10655004
aI10655042
aI10655043
aI10655064
aI10655103
aI10655220
aI10655295
aI10655354
aI10655359
aI10655418
aI10655426
aI10655542
aI10655593
aI10655628
aI10655657
aI10655658
aI10655698
aI10655699
aI10655702
aI10655706
aI10655708
aI10655714
aI10655716
aI10655722
aI10655727
aI10655729
aI10655731
aI10655750
aI10655787
aI10655823
aI10655847
aI10655849
aI10655877
aI10655942
aI10655980
aI10655997
aI10656096
aI10656157
aI10656164
aI10656176
aI10656178
aI10656183
aI10656419
aI10656471
aI10656478
aI10656483
aI10656484
aI10656488
aI10656490
aI10656509
aI10656537
aI10656538
aI10656539
aI10656637
aI10656641
aI10656671
aI10656679
aI10656701
aI10656740
aI10656745
aI10656748
aI10656813
aI10656815
aI10656822
aI10656824
aI10656850
aI10656854
aI10656866
aI10656911
aI10656936
aI10656945
aI10656966
aI10656967
aI10656976
aI10656978
aI10657037
aI10657039
aI10657116
aI10657144
aI10657558
aI10657572
aI10657628
aI10657791
aI10657928
aI10657951
aI10658399
aI10658797
aI10658917
aI10658968
aI10658969
aI10660462
aI10660861
aI10661942
aI10665553
aI10665602
aI10665604
aI10665606
aI10665699
aI10665700
aI10666512
aI10666561
aI10666589
aI10666591
aI10666655
aI10666721
aI10666722
aI10666750
aI10666780
aI10666782
aI10666784
aI10666785
aI10666786
aI10666787
aI10666788
aI10666930
aI10666932
aI10666933
aI10666962
aI10666964
aI10666967
aI10666987
aI10865985
aI10866003
aI10865993
aI10863371
aI10867369
aI10669929
aI10670001
aI10670002
aI10670047
aI10670055
aI10670056
aI10670072
aI10670101
aI10670133
aI10670654
aI10670722
aI10670780
aI10670900
aI10522775
aI10671813
aI10671938
aI10672106
aI10672607
aI10673017
aI10673122
aI10673274
aI10673303
aI10673664
aI10673860
aI10674132
aI10862385
aI10674324
aI10674329
aI10674333
aI10674496
aI10674525
aI10865144
aI10793684
aI10792182
aI10807297
aI10793067
aI10865038
aI10792089
aI10871626
aI10868156
aI10871618
aI10873119
aI10872223
aI10793207
aI10806750
aI10873099
aI10792114
aI10792111
aI10792100
aI10793415
aI10873302
aI10793412
aI10873588
aI10674950
aI10674952
aI10873585
aI10674954
aI10674957
aI10873250
aI10873247
aI10873214
aI10873222
aI10873241
aI10873235
aI10873232
aI10873406
aI10873403
aI10873415
aI10873392
aI10873389
aI10873383
aI10873377
aI10873369
aI10873135
aI10873358
aI10873355
aI10873547
aI10873132
aI10873628
aI10873279
aI10873184
aI10873177
aI10873652
aI10873649
aI10873646
aI10873159
aI10873607
aI10873144
aI10873423
aI10873618
aI10854535
aI10873613
aI10873604
aI10873194
aI10873109
aI10873229
aI10873084
aI10873106
aI10873090
aI10873471
aI10873462
aI10803535
aI10675497
aI10675510
aI10873256
aI10873253
aI10873244
aI10873238
aI10873397
aI10873386
aI10873380
aI10873372
aI10873349
aI10873346
aI10873598
aI10873489
aI10873443
aI10873465
aI10873637
aI10873449
aI10873625
aI10873505
aI10873622
aI10873634
aI10873420
aI10873601
aI10873197
aI10873203
aI10873226
aI10675896
aI10675901
aI10675904
aI10675906
aI10675933
aI10676103
aI10676115
aI10676158
aI10676166
aI10676181
aI10676300
aI10676528
aI10676625
aI10676641
aI10676663
aI10676845
aI10676863
aI10676869
aI10676871
aI10676881
aI10676922
aI10677019
aI10677090
aI10677093
aI10677095
aI10677887
aI10677901
aI10677950
aI10678476
aI10678486
aI10678488
aI10678490
aI10678491
aI10678494
aI10678495
aI10678501
aI10678504
aI10678507
aI10678508
aI10678512
aI10678514
aI10678515
aI10678536
aI10678599
aI10678757
aI10678816
aI10679118
aI10523773
aI10523774
aI10679270
aI10679406
aI10679412
aI10679570
aI10679645
aI10679712
aI10679713
aI10679715
aI10679749
aI10679794
aI10679806
aI10679807
aI10679820
aI10679823
aI10679827
aI10679906
aI10679934
aI10680013
aI10680035
aI10680037
aI10680043
aI10680145
aI10680296
aI10680516
aI10680524
aI10680569
aI10680586
aI10680591
aI10680674
aI10680678
aI10680754
aI10682289
aI10682395
aI10682400
aI10682438
aI10682440
aI10683159
aI10683178
aI10683194
aI10683227
aI10683234
aI10683256
aI10683258
aI10683259
aI10683291
aI10683298
aI10683301
aI10683312
aI10683322
aI10683324
aI10683325
aI10683368
aI10684339
aI10684490
aI10684494
aI10684609
aI10684744
aI10684780
aI10684783
aI10685200
aI10685465
aI10685522
aI10685523
aI10685594
aI10685931
aI10686003
aI10686014
aI10686019
aI10686065
aI10686105
aI10686106
aI10686294
aI10686404
aI10686410
aI10686448
aI10686465
aI10686484
aI10686631
aI10686641
aI10686683
aI10686696
aI10686698
aI10687108
aI10687572
aI10687581
aI10687583
aI10688360
aI10688567
aI10688575
aI10689413
aI10689436
aI10689437
aI10689447
aI10689464
aI10689480
aI10689481
aI10689483
aI10689484
aI10689485
aI10689486
aI10689487
aI10689488
aI10689489
aI10689495
aI10689565
aI10689705
aI10689817
aI10689819
aI10689833
aI10689839
aI10689841
aI10689843
aI10689846
aI10689847
aI10689887
aI10689889
aI10689891
aI10689920
aI10691059
aI10691173
aI10691182
aI10691241
aI10691276
aI10691384
aI10691470
aI10691476
aI10691479
aI10691565
aI10691718
aI10691831
aI10691833
aI10691900
aI10691902
aI10691931
aI10691941
aI10692091
aI10692389
aI10692435
aI10692443
aI10692445
aI10692451
aI10692460
aI10692480
aI10692708
aI10692770
aI10692785
aI10692786
aI10692883
aI10693159
aI10693532
aI10694209
aI10694218
aI10694265
aI10694289
aI10694344
aI10694405
aI10694406
aI10694459
aI10680587
aI10694514
aI10694515
aI10694738
aI10695197
aI10695205
aI10695206
aI10695219
aI10695278
aI10695366
aI10695367
aI10695374
aI10695416
aI10695417
aI10695418
aI10695419
aI10695421
aI10695441
aI10695442
aI10695544
aI10695547
aI10695549
aI10695550
aI10695551
aI10695552
aI10695553
aI10695581
aI10695615
aI10736495
aI10695662
aI10695663
aI10695714
aI10695739
aI10695755
aI10695830
aI10695835
aI10695851
aI10695860
aI10695861
aI10695863
aI10695864
aI10695865
aI10695866
aI10695867
aI10695868
aI10695869
aI10695870
aI10695882
aI10695883
aI10695884
aI10695885
aI10695886
aI10695887
aI10695888
aI10695889
aI10695890
aI10695891
aI10695892
aI10695895
aI10695897
aI10695900
aI10695901
aI10695904
aI10695905
aI10695906
aI10695907
aI10695909
aI10695916
aI10695917
aI10695918
aI10695919
aI10695920
aI10695921
aI10695922
aI10695923
aI10695924
aI10695925
aI10695926
aI10695927
aI10695928
aI10695929
aI10695930
aI10695931
aI10695938
aI10695939
aI10695941
aI10695943
aI10695956
aI10695964
aI10695989
aI10695990
aI10695991
aI10695992
aI10695998
aI10695999
aI10696000
aI10696001
aI10696002
aI10696003
aI10696004
aI10696005
aI10696006
aI10696007
aI10696010
aI10696011
aI10696012
aI10696014
aI10696015
aI10696018
aI10696019
aI10696020
aI10696021
aI10696022
aI10696023
aI10696026
aI10696028
aI10696029
aI10696031
aI10696033
aI10696034
aI10696037
aI10696038
aI10696042
aI10696045
aI10696047
aI10696050
aI10696053
aI10696056
aI10696058
aI10696061
aI10696062
aI10696063
aI10696064
aI10696065
aI10696066
aI10696067
aI10696068
aI10696069
aI10696070
aI10696071
aI10696072
aI10696074
aI10696075
aI10696076
aI10696077
aI10696078
aI10696079
aI10696080
aI10696081
aI10696082
aI10696083
aI10696084
aI10696085
aI10696086
aI10696087
aI10696088
aI10696089
aI10696090
aI10696091
aI10696092
aI10696093
aI10696094
aI10696095
aI10696096
aI10696097
aI10696098
aI10696099
aI10696100
aI10696101
aI10696102
aI10696103
aI10696104
aI10696105
aI10696106
aI10696107
aI10696108
aI10696109
aI10696110
aI10696111
aI10696114
aI10696115
aI10696116
aI10696117
aI10696118
aI10696119
aI10696122
aI10696123
aI10696126
aI10696128
aI10696129
aI10696131
aI10696134
aI10696136
aI10696137
aI10696140
aI10696143
aI10696146
aI10696147
aI10696148
aI10696149
aI10696150
aI10696151
aI10696152
aI10696153
aI10696154
aI10696157
aI10696158
aI10696159
aI10696161
aI10696162
aI10696163
aI10696164
aI10696165
aI10696166
aI10696167
aI10696168
aI10696169
aI10696170
aI10696171
aI10696172
aI10696174
aI10696175
aI10696179
aI10696180
aI10696182
aI10696183
aI10696186
aI10696187
aI10696188
aI10696189
aI10696190
aI10696191
aI10696192
aI10696194
aI10696196
aI10696197
aI10696199
aI10696201
aI10696203
aI10696204
aI10696206
aI10696208
aI10696209
aI10696212
aI10696213
aI10696214
aI10696215
aI10696216
aI10696219
aI10696220
aI10696221
aI10696222
aI10696223
aI10696224
aI10696225
aI10696226
aI10696227
aI10696228
aI10696229
aI10696230
aI10696231
aI10696232
aI10696233
aI10696234
aI10696236
aI10696237
aI10696238
aI10696240
aI10696241
aI10696242
aI10696243
aI10696244
aI10696245
aI10696247
aI10696248
aI10696251
aI10696253
aI10696254
aI10696257
aI10696259
aI10696260
aI10696274
aI10696448
aI10696461
aI10696462
aI10701171
aI10701179
aI10701196
aI10701200
aI10566737
aI10701203
aI10701218
aI10701225
aI10701227
aI10701228
aI10701247
aI10701254
aI10701266
aI10701274
aI10701280
aI10701292
aI10552956
aI10701305
aI10677884
aI10701311
aI10629451
aI10561781
aI10701339
aI10701340
aI10701343
aI10701347
aI10701375
aI10701377
aI10701380
aI10872696
aI10701451
aI10701455
aI10701516
aI10701519
aI10701520
aI10701521
aI10701522
aI10701683
aI10701684
aI10701763
aI10701765
aI10701767
aI10701770
aI10701771
aI10701772
aI10701774
aI10701775
aI10701776
aI10701778
aI10701783
aI10701880
aI10701881
aI10701883
aI10701884
aI10701885
aI10701886
aI10701960
aI10701961
aI10702273
aI10702278
aI10702315
aI10702355
aI10702356
aI10702357
aI10702359
aI10702400
aI10702414
aI10702422
aI10702430
aI10702435
aI10702441
aI10702462
aI10702516
aI10702517
aI10702520
aI10702576
aI10702577
aI10702618
aI10702619
aI10702620
aI10702622
aI10702623
aI10702624
aI10702629
aI10702692
aI10702701
aI10702710
aI10702729
aI10702730
aI10702731
aI10572234
aI10702757
aI10702762
aI10702787
aI10702820
aI10702844
aI10702846
aI10702847
aI10702853
aI10702857
aI10702868
aI10702869
aI10702871
aI10702873
aI10702895
aI10702908
aI10702924
aI10702927
aI10702930
aI10702959
aI10702960
aI10702967
aI10703008
aI10703009
aI10703011
aI10703012
aI10703013
aI10703014
aI10703015
aI10703016
aI10703018
aI10703019
aI10703020
aI10703021
aI10703024
aI10703025
aI10703027
aI10703030
aI10703032
aI10703035
aI10703038
aI10703039
aI10703114
aI10703225
aI10703226
aI10703271
aI10703285
aI10703346
aI10703355
aI10703356
aI10703357
aI10703358
aI10703359
aI10703360
aI10703361
aI10703362
aI10703363
aI10703364
aI10703365
aI10703366
aI10703367
aI10703368
aI10703369
aI10703370
aI10703375
aI10703379
aI10703380
aI10703430
aI10703431
aI10703432
aI10703433
aI10703443
aI10703476
aI10703477
aI10710214
aI10710216
aI10710245
aI10710246
aI10710406
aI10710410
aI10710453
aI10710454
aI10710456
aI10710458
aI10710496
aI10710497
aI10710501
aI10710504
aI10710525
aI10710529
aI10710539
aI10710577
aI10710602
aI10710607
aI10710610
aI10710614
aI10710804
aI10710889
aI10710961
aI10711139
aI10711533
aI10711536
aI10711583
aI10711585
aI10711599
aI10527813
aI10700805
aI10700783
aI10840149
aI10840151
aI10527123
aI10590033
aI10590740
aI10515117
aI10592390
aI10592456
aI10518426
aI10520517
aI10643374
aI10520020
aI10647251
aI10655294
aI10655305
aI10655325
aI10655356
aI10523599
aI10655391
aI10655400
aI10655401
aI10655413
aI10655425
aI10655430
aI10655492
aI10655502
aI10655518
aI10655535
aI10655536
aI10655538
aI10655569
aI10655576
aI10655578
aI10520623
aI10522729
aI10673026
aI10689454
aI10689466
aI10689467
aI10689499
aI10689570
aI10509580
aI10689802
aI10689811
aI10689837
aI10692718
aI10692773
aI10673618
aI10676533
aI10642840
aI10655514
aI10595565
aI10888706
aI10896078
aI10889022
aI10888661
aI10537353
aI10699663
aI10699635
aI10699677
aI10699658
aI10699625
aI10699609
aI10699605
aI10565525
aI10576011
aI10576012
aI10577186
aI10577188
aI10582285
aI10584383
aI10590816
aI10590817
aI10590835
aI10591235
aI10592494
aI10595390
aI10595423
aI10618537
aI10634866
aI10640695
aI10644235
aI10647015
aI10650017
aI10651150
aI10655290
aI10655297
aI10655320
aI10655382
aI10655474
aI10655482
aI10655485
aI10655548
aI10655915
aI10657407
aI10677191
aI10679997
aI10684917
aI10686972
aI10689468
aI10798260
aI10522536
aI10896315
aI10646922
aI10514690
aI10646919
aI10648698
aI10648699
aI10646924
aI10635938
aI10648711
aI10646776
aI10648704
aI10648706
aI10648708
aI10648712
aI10646914
aI10646916
aI10648702
aI10646913
aI10648694
aI10648707
aI10648697
aI10883676
aI10692613
aI10600677
aI10634004
aI10556730
aI10509513
aI10581290
aI10567222
aI10600929
aI10509870
aI10577729
aI10632937
aI10654481
aI10600949
aI10652252
aI10584853
aI10510022
aI10636215
aI10581196
aI10636119
aI10652999
aI10640655
aI10554083
aI10650826
aI10658800
aI10658801
aI10679111
aI10553577
aI10629389
aI10634161
aI10639603
aI10575393
aI10551083
aI10520910
aI10674340
aI10665609
aI10665610
aI10665611
aI10643829
aI10519996
aI10519999
aI10689870
aI10584585
aI10584562
aI10584553
aI10584560
aI10584568
aI10584576
aI10584567
aI10693743
aI10635577
aI10647017
aI10576399
aI10639498
aI10571013
aI10641639
aI10512874
aI10511694
aI10653404
aI10511692
aI10520024
aI10518974
aI10553088
aI10553307
aI10684627
aI10649326
aI10684751
aI10640201
aI10560133
aI10591049
aI10591050
aI10644082
aI10684662
aI10650331
aI10650330
aI10684665
aI10584582
aI10684855
aI10686367
aI10584581
aI10584586
aI10584561
aI10684857
aI10684856
aI10585895
aI10559902
aI10684798
aI10684800
aI10684802
aI10524471
aI10502745
aI10524472
aI10536933
aI10536879
aI10559443
aI10515416
aI10536878
aI10576451
aI10576459
aI10576458
aI10576457
aI10576456
aI10576455
aI10576454
aI10576453
aI10576452
aI10686387
aI10686388
aI10686389
aI10686363
aI10509876
aI10647834
aI10524463
aI10723165
aI10728427
aI10519454
aI10645336
aI10647842
aI10650076
aI10647775
aI10792665
aI10850841
aI10567698
aI10649681
aI10575101
aI10519747
aI10520612
aI10520601
aI10516761
aI10655435
aI10575420
aI10649013
aI10517162
aI10648779
aI10649010
aI10598572
aI10536914
aI10553219
aI10581197
aI10649420
aI10522002
aI10597478
aI10501283
aI10582473
aI10724511
aI10629776
aI10672896
aI10700604
aI10648797
aI10648799
aI10648801
aI10648993
aI10686379
aI10649006
aI10686381
aI10648949
aI10686220
aI10686228
aI10686230
aI10686114
aI10686122
aI10686119
aI10686160
aI10686072
aI10686084
aI10686169
aI10686170
aI10686172
aI10686130
aI10686131
aI10686132
aI10686136
aI10686138
aI10686140
aI10686141
aI10686149
aI10686148
aI10651692
aI10649486
aI10649487
aI10649484
aI10649419
aI10649230
aI10686007
aI10686009
aI10686010
aI10650875
aI10689450
aI10684968
aI10686353
aI10686364
aI10647853
aI10689799
aI10689801
aI10583652
aI10635456
aI10501533
aI10559547
aI10642836
aI10599408
aI10644688
aI10646441
aI10501534
aI10642924
aI10635531
aI10505524
aI10646549
aI10635414
aI10501530
aI10516744
aI10516741
aI10634159
aI10511411
aI10516745
aI10536913
aI10515314
aI10675907
aI10580538
aI10521405
aI10524074
aI10648410
aI10666664
aI10505528
aI10590831
aI10590829
aI10590848
aI10510049
aI10504752
aI10589514
aI10598548
aI10577871
aI10562314
aI10568993
aI10598862
aI10566534
aI10571564
aI10571354
aI10666744
aI10514783
aI10524683
aI10524552
aI10509737
aI10589195
aI10644565
aI10598413
aI10598414
aI10598416
aI10591423
aI10591424
aI10519392
aI10514494
aI10514487
aI10644639
aI10645283
aI10578326
aI10575090
aI10692308
aI10591429
aI10591428
aI10591427
aI10722981
aI10752037
aI10755020
aI10522367
aI10520206
aI10580988
aI10655463
aI10655393
aI10651349
aI10649223
aI10655549
aI10518844
aI10577371
aI10921024
aI10992294
aI10895911
aI10890930
aI10890013
aI10782905
aI10888973
aI10888466
aI10629286
aI10633962
aI10595989
aI10949211
aI10888145
aI10715083
aI10807860
aI10825979
aI10825404
aI10822859
aI10843145
aI10805990
aI10802126
aI10790227
aI10790606
aI10845182
aI10867715
aI10870049
aI10572703
aI10577461
aI10578387
aI10575855
aI10569432
aI10689474
aI10641787
aI10722027
aI10647175
aI10676071
aI10995386
aI10603867
aI10636238
aI10893855
aI10899884
aI10672440
aI10678503
aI10694075
aI10655560
aI10568346
aI10511703
aI10765134
aI10643602
aI10922501
aI10905263
aI10690121
aI10576590
aI10573026
aI10579814
aI10520602
aI10512219
aI10583965
aI10583801
aI10595066
aI10577097
aI10575850
aI10560580
aI10578237
aI10577445
aI10559699
aI10559700
aI10578644
aI10519003
aI10577000
aI10579597
aI10588381
aI10647389
aI10590382
aI10591359
aI10590670
aI10597481
aI10702205
aI10519836
aI10635974
aI10643673
aI10509277
aI10641642
aI10621630
aI10644582
aI10642970
aI10644584
aI10645000
aI10636240
aI10580076
aI10633383
aI10644449
aI10520771
aI10522655
aI10654705
aI10654709
aI10632969
aI10632985
aI10632987
aI10632994
aI10632996
aI10588755
aI10633003
aI10633006
aI10633134
aI10634253
aI10580275
aI10635709
aI10629105
aI10633020
aI10635717
aI10632926
aI10577861
aI10723982
aI10723721
aI10581361
aI10629177
aI10582215
aI10590086
aI10654667
aI10566094
aI10655754
aI10644451
aI10644453
aI10591094
aI10582474
aI10641717
aI10636451
aI10629770
aI10629819
aI10629817
aI10582312
aI10649615
aI10583941
aI10640384
aI10576009
aI10584668
aI10588348
aI10633098
aI10718965
aI10700491
aI10700426
aI10700597
aI10871033
aI10707707
aI10697390
aI10708905
aI10709294
aI10707896
aI10720080
aI10935272
aI10713925
aI10689520
aI10689461
aI10689537
aI10689533
aI10689549
aI10689872
aI10689567
aI10689496
aI10689446
aI10689563
aI10689497
aI10689574
aI10689490
aI10689566
aI10689444
aI10689473
aI10689548
aI10689441
aI10689554
aI10689440
aI10689451
aI10904107
aI10903001
aI10903214
aI10553244
aI10521726
aI10702242
aI10942631
aI10708581
aI10687018
aI10687115
aI10687394
aI10687292
aI10687010
aI10690230
aI10680472
aI10697480
aI10648500
aI10648459
aI10643455
aI10644014
aI10643961
aI10692710
aI10684749
aI10642778
aI10642776
aI10642775
aI10584691
aI10642777
aI10635691
aI10667291
aI10642769
aI10521176
aI10642768
aI10669948
aI10669979
aI10670040
aI10670036
aI10670051
aI10670063
aI10667305
aI10670035
aI10670064
aI10670129
aI10648603
aI10582163
aI10654642
aI10687578
aI10633788
aI10641803
aI10638318
aI10638304
aI10677023
aI10936144
aI10645312
aI10643899
aI10647843
aI10645784
aI10649081
aI10676433
aI10645337
aI10645748
aI10648844
aI10648845
aI10700910
aI10645591
aI10646723
aI10656650
aI10649512
aI10649534
aI10645583
aI10649642
aI10649643
aI10647863
aI10643708
aI10655287
aI10655284
aI10655310
aI10655337
aI10655368
aI10655386
aI10655414
aI10653348
aI10655509
aI10518909
aI10676877
aI10655495
aI10655371
aI10655302
aI10654415
aI10641975
aI10632921
aI10598109
aI10702060
aI10636106
aI10679922
aI10677454
aI10901142
aI10727120
aI10574527
aI10592300
aI10592651
aI10677410
aI10545414
aI10646344
aI10752370
aI10752372
aI10789266
aI10788593
aI10773980
aI10769873
aI10769887
aI10767344
aI10769428
aI10769434
aI10769323
aI10769194
aI10769385
aI10769172
aI10783002
aI10778670
aI10781013
aI10781027
aI10776876
aI10769996
aI10769979
aI10770110
aI10776992
aI10777011
aI10777957
aI10772920
aI10776427
aI10776485
aI10775074
aI10781523
aI10776903
aI10776330
aI10767302
aI10667064
aI10635196
aI10626511
aI10952486
aI10949849
aI10572103
aI10651488
aI10920380
aI10931645
aI10691148
aI10646870
aI10743426
aI10773217
aI10783404
aI10904439
aI10893664
aI10892616
aI10890562
aI10895988
aI10656698
aI10741272
aI10649563
aI10596396
aI10721117
aI10651835
aI10598329
aI10550446
aI10550417
aI10699359
aI10945766
aI10944983
aI10945097
aI10727777
aI10697537
aI10698273
aI10698260
aI10952821
aI10549793
aI10679475
aI10567310
aI10692585
aI10887099
aI10878506
aI10875098
aI10874902
aI10876448
aI10652364
aI10652366
aI10680549
aI10649051
aI10906604
aI10640758
aI10866966
aI10827837
aI10821574
aI10831819
aI10846372
aI10824246
aI10817894
aI10797743
aI10797411
aI10827148
aI10807094
aI10844682
aI10843652
aI10840645
aI10799860
aI10834835
aI10835740
aI10847657
aI10814156
aI10816333
aI10816323
aI10815453
aI10811732
aI10811517
aI10811492
aI10820282
aI10820290
aI10820286
aI10818993
aI10818991
aI10820517
aI10819111
aI10819666
aI10873452
aI10792938
aI10792678
aI10802867
aI10859445
aI10801598
aI10829643
aI10851466
aI10854628
aI10831039
aI10859542
aI10863895
aI10572783
aI10588964
aI10719664
aI10566795
aI10623865
aI10550457
aI10584265
aI10591466
aI10721355
aI10656891
aI10569302
aI10652685
aI10920476
aI10633011
aI10545131
aI10745995
aI10750013
aI10745991
aI10749973
aI10745155
aI10634800
aI10635293
aI10743223
aI10743222
aI10743349
aI10743272
aI10680794
aI10556771
aI10750603
aI10749990
aI10749993
aI10747983
aI10996424
aI10995690
aI10743921
aI10751636
aI10744094
aI10588011
aI10635197
aI10750625
aI10742766
aI10635987
aI10749327
aI10747037
aI10740590
aI10634732
aI10740523
aI10745143
aI10736696
aI10735381
aI10735376
aI10735377
aI10735356
aI10735351
aI10735379
aI10735380
aI10735349
aI10734670
aI10740083
aI10740112
aI10738343
aI10550530
aI10550499
aI10740682
aI10747079
aI10751512
aI10937686
aI10939297
aI10937756
aI10938576
aI10937978
aI10937533
aI10938895
aI10751594
aI10747762
aI10742356
aI10740378
aI10735456
aI10740102
aI10757304
aI10754690
aI10754185
aI10754173
aI10754171
aI10754167
aI10754155
aI10754151
aI10754148
aI10756286
aI10754628
aI10758261
aI10754158
aI10748969
aI10749297
aI10750797
aI10731052
aI10747348
aI10775035
aI10775019
aI10775004
aI10775085
aI10775051
aI10789099
aI10782675
aI10782706
aI10770237
aI10770224
aI10779500
aI10779593
aI10789235
aI10776953
aI10774152
aI10780183
aI10781084
aI10780370
aI10776739
aI10782601
aI10774985
aI10773228
aI10784584
aI10773859
aI10773802
aI10773745
aI10774306
aI10769223
aI10769378
aI10778700
aI10778658
aI10778742
aI10778803
aI10770035
aI10770060
aI10770117
aI10770102
aI10782389
aI10769833
aI10747073
aI10743712
aI10751468
aI10747430
aI10748116
aI10740158
aI10742409
aI10748109
aI10748419
aI10739661
aI10739658
aI10739602
aI10739594
aI10739591
aI10751420
aI10747823
aI10747534
aI10749189
aI10732956
aI10732915
aI10732944
aI10732587
aI10746014
aI10733399
aI10749644
aI10918503
aI10918499
aI10918481
aI10918472
aI10750619
aI10751044
aI10744631
aI10731142
aI10731195
aI10731157
aI10731179
aI10731458
aI10732795
aI10732760
aI10730244
aI10741896
aI10645210
aI10691786
aI10737755
aI10746321
aI10729740
aI10648812
aI10735842
aI10750426
aI10741973
aI10729618
aI10738725
aI10738728
aI10735647
aI10895589
aI10890912
aI10890909
aI10890392
aI10890390
aI10896081
aI10889079
aI10893671
aI10890545
aI10895991
aI10738494
aI10741265
aI10741498
aI10739113
aI10746770
aI10750050
aI10746850
aI10649363
aI10740437
aI10729810
aI10741595
aI10697315
aI10568347
aI10697520
aI10655186
aI10641655
aI10641819
aI10764163
aI10642721
aI10730012
aI10736261
aI10629287
aI10744637
aI10741471
aI10733398
aI10733383
aI10735875
aI10747510
aI10731503
aI10570739
aI10741409
aI10568963
aI10511161
aI10739672
aI10741061
aI10734127
aI10751041
aI10747804
aI10697682
aI10583822
aI10742590
aI10750741
aI10745402
aI10743063
aI10731731
aI10731629
aI10745498
aI10731642
aI10731695
aI10731672
aI10699853
aI10699971
aI10748834
aI10642102
aI10643603
aI10751158
aI10729148
aI10738652
aI10730238
aI10559675
aI10729562
aI10741310
aI10765117
aI10738611
aI10744277
aI10749572
aI10744910
aI10765809
aI10747209
aI10746893
aI10744886
aI10746880
aI10747492
aI10745291
aI10749646
aI10735120
aI10746101
aI10650858
aI10600595
aI10753705
aI10739322
aI10577389
aI10577294
aI10577295
aI10732593
aI10734552
aI10710788
aI10889087
aI10744005
aI10732589
aI10667366
aI10667368
aI10667370
aI10667309
aI10667327
aI10667348
aI10667367
aI10667312
aI10667322
aI10667331
aI10667332
aI10667339
aI10667342
aI10667345
aI10667352
aI10752754
aI10752782
aI10752784
aI10752810
aI10732742
aI10750463
aI10752283
aI10588427
aI10753731
aI10753493
aI10733016
aI10761348
aI10736743
aI10919304
aI10911655
aI10917944
aI10911337
aI10917759
aI10909542
aI10918128
aI10920145
aI10917374
aI10910400
aI10914384
aI10917786
aI10916656
aI10913909
aI10917917
aI10918102
aI10907785
aI10907195
aI10912001
aI10917824
aI10917832
aI10918477
aI10888289
aI10888290
aI10921338
aI10577316
aI10764309
aI10651757
aI10651912
aI10749976
aI10749971
aI10752064
aI10752076
aI10752067
aI10752068
aI10752065
aI10752071
aI10738087
aI10749936
aI10747627
aI10739782
aI10588841
aI10595083
aI10597278
aI10728196
aI10921707
aI10922059
aI10644309
aI10921625
aI10575766
aI10576120
aI10641151
aI10750578
aI10747097
aI10595082
aI10572979
aI10576079
aI10575219
aI10594119
aI10572468
aI10584963
aI10599467
aI10576589
aI10575816
aI10572800
aI10573755
aI10748796
aI10750469
aI10576331
aI10585588
aI10514528
aI10506014
aI10600836
aI10589930
aI10590751
aI10592457
aI10592340
aI10577516
aI10590032
aI10590741
aI10592391
aI10590383
aI10592410
aI10592361
aI10592450
aI10591209
aI10597276
aI10887456
aI10884631
aI10884628
aI10732846
aI10656856
aI10577325
aI10641830
aI10740317
aI10709604
aI10709511
aI10709358
aI10709374
aI10709440
aI10709547
aI10709455
aI10709421
aI10709505
aI10552452
aI10587476
aI10558376
aI10606378
aI10639083
aI10650044
aI10653255
aI10617504
aI10638153
aI10636271
aI10641335
aI10649093
aI10649253
aI10590184
aI10653057
aI10635223
aI10742596
aI10608930
aI10745351
aI10745348
aI10597482
aI10702206
aI10592743
aI10557180
aI10579799
aI10578198
aI10763055
aI10763058
aI10763056
aI10764345
aI10763053
aI10763050
aI10809774
aI10822566
aI10809572
aI10842385
aI10819564
aI10806232
aI10815480
aI10815468
aI10815464
aI10808335
aI10813363
aI10811906
aI10811904
aI10811262
aI10809583
aI10811790
aI10819716
aI10806285
aI10811513
aI10811507
aI10811505
aI10811500
aI10820687
aI10843779
aI10804663
aI10804662
aI10838740
aI10864037
aI10863564
aI10816329
aI10809042
aI10795080
aI10849143
aI10820519
aI10815517
aI10844686
aI10843729
aI10844684
aI10843700
aI10790270
aI10816194
aI10800022
aI10815612
aI10806998
aI10837340
aI10815432
aI10793350
aI10854626
aI10855061
aI10860320
aI10854212
aI10855882
aI10794014
aI10851464
aI10853191
aI10791079
aI10847497
aI10859321
aI10836684
aI10824756
aI10845964
aI10846531
aI10846964
aI10846086
aI10801505
aI10801281
aI10801279
aI10828480
aI10830225
aI10817646
aI10806009
aI10824242
aI10846360
aI10797895
aI10824781
aI10823250
aI10817895
aI10847990
aI10846861
aI10849449
aI10822703
aI10798808
aI10794442
aI10592429
aI10591746
aI10591405
aI10762044
aI10762035
aI10762043
aI10762051
aI10762074
aI10763418
aI10763419
aI10762025
aI10762079
aI10762073
aI10762087
aI10762109
aI10994730
aI10993922
aI10996115
aI10989810
aI10596238
aI10587565
aI10560901
aI10636241
aI10580318
aI10644450
aI10582212
aI10594135
aI10588838
aI10623958
aI10734652
aI10734648
aI10734661
aI10522003
aI10632970
aI10588756
aI10796668
aI10633135
aI10634254
aI10635710
aI10635718
aI10636295
aI10632927
aI10643598
aI10643599
aI10582216
aI10597267
aI10555230
aI10569988
aI10565312
aI10764275
aI10764285
aI10764278
aI10764276
aI10654668
aI10581935
aI10566095
aI10589321
aI10643693
aI10590438
aI10571567
aI10632919
aI10644446
aI10644448
aI10644452
aI10582459
aI10644456
aI10644454
aI10582475
aI10741464
aI10588516
aI10573183
aI10635848
aI10598460
aI10635233
aI10635232
aI10592567
aI10654666
aI10654664
aI10679413
aI10646329
aI10636452
aI10629170
aI10606055
aI10746677
aI10751448
aI10636546
aI10636545
aI10790910
aI10747174
aI10570128
aI10750244
aI10582313
aI10647231
aI10647202
aI10584012
aI10583942
aI10582218
aI10570446
aI10640385
aI10655717
aI10747889
aI10699674
aI10945439
aI10944571
aI10945102
aI10946120
aI10723202
aI10749041
aI10749043
aI10749112
aI10749651
aI10700240
aI10712173
aI10712174
aI10749634
aI10712276
aI10712071
aI10750710
aI10750712
aI10657409
aI10657342
aI10652640
aI10652641
aI10649433
aI10625876
aI10652848
aI10791037
aI10791041
aI10791083
aI10791077
aI10791073
aI10791069
aI10596485
aI10788324
aI10788351
aI10742467
aI10736555
aI10791527
aI10791933
aI10791063
aI10791061
aI10791919
aI10791059
aI10791081
aI10791316
aI10791055
aI10791053
aI10791045
aI10791903
aI10790328
aI10790624
aI10791899
aI10790339
aI10747543
aI10747532
aI10584652
aI10584659
aI10717444
aI10640859
aI10655844
aI10592515
aI10941574
aI10799282
aI10799178
aI10799177
aI10799172
aI10799209
aI10799265
aI10748050
aI10748052
aI10748047
aI10748057
aI10748048
aI10748060
aI10748055
aI10748051
aI10799286
aI10799267
aI10798825
aI10798821
aI10799101
aI10798815
aI10750640
aI10646550
aI10644995
aI10742722
aI10720518
aI10721151
aI10748774
aI10720918
aI10657438
aI10648770
aI10721072
aI10720343
aI10653426
aI10653421
aI10798387
aI10798321
aI10798315
aI10797755
aI10700097
aI10700060
aI10700007
aI10700280
aI10700279
aI10700274
aI10700149
aI10700035
aI10700126
aI10798079
aI10798085
aI10797924
aI10797927
aI10796902
aI10797832
aI10798057
aI10721336
aI10798124
aI10797915
aI10797917
aI10797916
aI10797920
aI10797918
aI10797712
aI10797715
aI10797791
aI10797422
aI10797561
aI10797416
aI10797439
aI10797959
aI10797086
aI10797098
aI10719007
aI10798001
aI10643596
aI10643597
aI10750727
aI10750729
aI10750728
aI10751046
aI10747736
aI10751568
aI10714751
aI10714802
aI10657362
aI10622372
aI10657327
aI10651804
aI10651806
aI10651807
aI10651805
aI10651803
aI10651899
aI10715556
aI10714207
aI10715941
aI10715458
aI10740104
aI10740106
aI10740105
aI10740101
aI10742809
aI10742951
aI10742778
aI10647068
aI10742735
aI10742734
aI10690578
aI10690582
aI10713718
aI10713602
aI10713665
aI10696781
aI10992572
aI10743556
aI10744460
aI10745774
aI10657376
aI10712516
aI10657464
aI10648440
aI10940118
aI10520833
aI10657368
aI10643778
aI10888303
aI10658146
aI10629117
aI10629225
aI10629113
aI10629116
aI10654994
aI10654992
aI10748100
aI10748092
aI10748094
aI10748088
aI10904517
aI10732407
aI10644505
aI10781172
aI10781176
aI10734420
aI10713891
aI10713880
aI10713885
aI10713898
aI10713932
aI10657386
aI10645090
aI10709691
aI10709614
aI10709419
aI10707337
aI10709645
aI10709663
aI10709665
aI10709639
aI10709669
aI10709641
aI10709587
aI10709365
aI10709611
aI10709576
aI10709416
aI10709539
aI10709613
aI10709355
aI10709589
aI10707008
aI10709354
aI10707011
aI10709558
aI10707259
aI10707005
aI10712974
aI10707269
aI10707289
aI10709371
aI10713000
aI10709409
aI10709530
aI10707016
aI10712775
aI10699799
aI10699914
aI10699540
aI10699980
aI10699992
aI10699868
aI10699825
aI10699796
aI10699794
aI10699449
aI10699920
aI10699204
aI10699195
aI10699207
aI10645735
aI10699039
aI10699029
aI10699010
aI10699017
aI10699015
aI10699000
aI10698962
aI10699167
aI10699107
aI10699135
aI10699115
aI10699153
aI10699139
aI10699082
aI10713516
aI10699038
aI10712915
aI10712865
aI10712826
aI10712508
aI10644973
aI10712746
aI10622258
aI10657709
aI10608822
aI10635609
aI10638850
aI10638847
aI10635746
aI10635752
aI10714178
aI10657015
aI10657017
aI10714120
aI10750100
aI10699773
aI10699778
aI10720107
aI10711959
aI10650435
aI10640003
aI10689546
aI10647827
aI10549120
aI10751495
aI10946685
aI10946744
aI10946745
aI10946924
aI10946743
aI10946748
aI10946740
aI10946746
aI10946749
aI10946742
aI10946607
aI10946747
aI10946609
aI10643932
aI10848043
aI10848046
aI10848040
aI10848035
aI10848034
aI10818300
aI10818314
aI10818315
aI10818305
aI10638927
aI10720849
aI10657460
aI10804715
aI10804773
aI10805428
aI10792460
aI10805151
aI10805385
aI10804818
aI10804816
aI10804808
aI10804792
aI10805405
aI10804800
aI10804802
aI10805153
aI10805290
aI10804836
aI10805403
aI10804853
aI10804708
aI10805391
aI10804710
aI10804845
aI10804843
aI10805157
aI10578679
aI10954364
aI10782964
aI10782959
aI10947059
aI10513530
aI10739355
aI10735466
aI10562627
aI10691580
aI10645080
aI10762223
aI10762271
aI10762220
aI10717479
aI10649435
aI10636246
aI10636249
aI10636245
aI10721557
aI10721503
aI10721506
aI10996556
aI10519593
aI10996810
aI10996325
aI10996705
aI10745015
aI10752501
aI10758340
aI10758245
aI10757690
aI10757439
aI10678703
aI10563045
aI10731063
aI10702243
aI10747142
aI10635893
aI10635892
aI10635891
aI10635890
aI10635868
aI10635873
aI10635870
aI10635869
aI10635867
aI10635865
aI10635882
aI10635878
aI10635876
aI10635877
aI10635879
aI10635880
aI10635875
aI10635874
aI10635855
aI10635852
aI10580815
aI10575232
aI10597380
aI10594302
aI10666723
aI10594303
aI10595136
aI10595132
aI10597951
aI10595815
aI10594618
aI10650987
aI10595126
aI10594271
aI10595813
aI10650992
aI10595128
aI10653130
aI10594265
aI10595129
aI10650991
aI10593415
aI10595130
aI10594200
aI10594225
aI10574141
aI10593343
aI10593342
aI10595127
aI10593088
aI10593091
aI10593083
aI10574140
aI10590704
aI10644838
aI10590690
aI10594256
aI10642738
aI10594269
aI10594263
aI10642756
aI10676296
aI10594350
aI10594260
aI10594258
aI10595465
aI10592657
aI10597934
aI10594201
aI10594481
aI10594254
aI10593348
aI10593082
aI10594541
aI10590694
aI10590691
aI10590686
aI10592660
aI10595819
aI10593346
aI10694247
aI10592992
aI10652707
aI10594253
aI10652706
aI10646448
aI10652705
aI10595825
aI10646447
aI10594301
aI10592995
aI10593042
aI10592672
aI10652742
aI10594389
aI10566829
aI10594252
aI10594615
aI10594580
aI10594387
aI10594617
aI10643433
aI10594386
aI10594304
aI10691534
aI10590700
aI10593349
aI10694168
aI10655983
aI10518895
aI10645286
aI10641536
aI10656812
aI10708431
aI10594696
aI10645030
aI10684965
aI10629179
aI10629185
aI10597929
aI10635235
aI10675912
aI10691316
aI10599759
aI10667202
aI10667206
aI10667209
aI10594779
aI10595108
aI10595098
aI10596020
aI10596021
aI10594776
aI10595895
aI10594778
aI10594988
aI10596022
aI10595025
aI10595111
aI10595026
aI10594780
aI10595029
aI10595036
aI10667143
aI10667165
aI10667177
aI10667192
aI10667194
aI10667205
aI10667219
aI10667221
aI10643272
aI10922734
aI10747455
aI10748110
aI10641193
aI10643241
aI10657241
aI10657246
aI10657251
aI10657240
aI10657239
aI10657238
aI10657236
aI10640788
aI10640785
aI10640783
aI10640782
aI10657402
aI10657401
aI10657399
aI10657404
aI10657405
aI10640624
aI10640623
aI10640905
aI10640903
aI10657701
aI10657700
aI10657699
aI10657697
aI10657696
aI10657695
aI10657693
aI10657698
aI10947669
aI10625979
aI10642662
aI10591245
aI10575160
aI10591240
aI10591630
aI10591633
aI10591599
aI10628064
aI10650329
aI10667123
aI10667145
aI10595124
aI10511481
aI10592893
aI10629828
aI10667170
aI10634799
aI10573906
aI10573908
aI10690587
aI10690589
aI10690588
aI10596285
aI10570980
aI10600569
aI10582164
aI10644535
aI10676925
aI10677996
aI10690069
aI10690070
aI10690066
aI10922935
aI10645203
aI10643426
aI10597862
aI10654641
aI10654643
aI10755005
aI10649259
aI10755153
aI10756999
aI10755474
aI10756884
aI10764367
aI10753609
aI10596028
aI10550500
aI10640591
aI10720251
aI10891310
aI10892548
aI10890397
aI10890467
aI10566849
aI10799790
aI10799788
aI10857183
aI10871373
aI10638717
aI10598508
aI10547475
aI10886750
aI10886734
aI10887043
aI10886363
aI10690032
aI10874586
aI10874603
aI10691114
aI10691115
aI10691116
aI10690072
aI10690030
aI10692250
aI10699951
aI10699434
aI10692310
aI10692317
aI10647221
aI10692311
aI10728744
aI10600715
aI10765955
aI10782327
aI10781010
aI10942210
aI10942269
aI10942274
aI10942273
aI10942265
aI10942258
aI10942250
aI10942236
aI10942252
aI10942256
aI10942247
aI10942248
aI10941964
aI10942260
aI10942251
aI10942268
aI10942241
aI10942262
aI10942263
aI10942254
aI10942259
aI10942223
aI10941935
aI10942220
aI10942224
aI10942228
aI10942229
aI10942231
aI10942105
aI10942159
aI10942191
aI10942050
aI10942195
aI10942193
aI10942153
aI10942046
aI10942063
aI10942154
aI10942197
aI10942187
aI10942194
aI10942055
aI10942074
aI10942070
aI10942071
aI10942087
aI10942090
aI10942093
aI10942092
aI10942056
aI10942095
aI10942101
aI10942102
aI10942100
aI10942060
aI10942057
aI10942103
aI10942106
aI10942184
aI10942109
aI10942117
aI10942111
aI10942114
aI10942062
aI10942122
aI10942113
aI10942044
aI10942119
aI10942189
aI10942125
aI10942128
aI10942161
aI10942135
aI10942134
aI10942066
aI10942138
aI10942139
aI10942145
aI10942149
aI10942143
aI10942156
aI10942164
aI10942065
aI10942150
aI10942158
aI10942169
aI10942170
aI10942069
aI10942171
aI10942174
aI10942073
aI10942175
aI10942067
aI10942173
aI10942064
aI10942047
aI10942177
aI10942180
aI10942181
aI10942157
aI10941958
aI10942218
aI10941921
aI10941926
aI10941927
aI10941928
aI10941929
aI10941930
aI10941984
aI10941985
aI10941974
aI10941982
aI10941966
aI10941970
aI10942242
aI10941989
aI10941944
aI10941959
aI10941954
aI10942217
aI10942075
aI10941577
aI10941962
aI10941986
aI10942096
aI10942205
aI10941924
aI10943980
aI10942207
aI10942208
aI10942026
aI10942186
aI10941887
aI10942110
aI10942212
aI10942112
aI10942221
aI10942115
aI10941888
aI10941960
aI10942116
aI10942120
aI10942253
aI10942222
aI10942211
aI10941955
aI10942215
aI10941889
aI10941945
aI10941968
aI10942147
aI10942227
aI10942226
aI10942272
aI10941906
aI10942041
aI10942165
aI10942042
aI10942163
aI10941890
aI10941948
aI10941976
aI10942214
aI10941891
aI10941892
aI10941988
aI10942230
aI10942027
aI10942249
aI10941949
aI10941917
aI10941931
aI10941918
aI10941981
aI10943978
aI10941881
aI10941884
aI10941878
aI10941912
aI10941885
aI10941883
aI10941879
aI10941913
aI10941914
aI10945453
aI10945447
aI10945449
aI10944821
aI10945446
aI10945450
aI10945456
aI10945452
aI10945451
aI10945457
aI10945415
aI10945419
aI10945377
aI10945378
aI10945445
aI10945396
aI10945418
aI10945401
aI10945237
aI10945412
aI10945420
aI10945422
aI10945424
aI10945395
aI10945409
aI10945411
aI10945367
aI10945391
aI10945404
aI10945407
aI10701113
aI10699909
aI10944843
aI10944845
aI10944827
aI10582103
aI10582104
aI10699209
aI10754016
aI10754000
aI10754284
aI10754282
aI10896681
aI10699241
aI10699828
aI10699973
aI10647136
aI10732546
aI10896485
aI10677024
aI10739344
aI10739489
aI10783177
aI10775613
aI10775644
aI10641042
aI10641930
aI10643900
aI10647844
aI10645338
aI10645587
aI10646724
aI10647896
aI10636347
aI10647898
aI10645388
aI10647864
aI10639057
aI10636112
aI10644126
aI10595231
aI10654930
aI10648036
aI10566753
aI10510556
aI10702061
aI10702238
aI10702064
aI10702058
aI10702207
aI10587930
aI10702068
aI10702069
aI10702041
aI10702167
aI10702186
aI10702072
aI10702042
aI10702063
aI10702043
aI10654324
aI10528005
aI10740136
aI10649438
aI10649709
aI10518896
aI10591682
aI10596287
aI10640925
aI10993831
aI10692110
aI10692348
aI10702209
aI10679923
aI10938258
aI10939240
aI10564679
aI10676880
aI10990867
aI10577150
aI10592106
aI10643171
aI10655151
aI10991972
aI10918405
aI10711238
aI10544620
aI10557767
aI10586017
aI10733076
aI10743264
aI10734170
aI10743738
aI10747045
aI10747240
aI10749725
aI10747809
aI10749422
aI10731832
aI10550531
aI10732302
aI10744778
aI10740714
aI10730838
aI10747415
aI10744360
aI10748085
aI10732433
aI10740137
aI10734642
aI10734625
aI10749751
aI10749750
aI10749752
aI10747498
aI10749295
aI10749292
aI10733729
aI10742804
aI10742801
aI10742800
aI10742803
aI10742802
aI10743126
aI10743127
aI10735722
aI10735721
aI10987780
aI10987767
aI10749243
aI10588142
aI10999348
aI10999349
aI10733665
aI10730801
aI10753223
aI10579711
aI10904631
aI10909914
aI10915930
aI10905975
aI10915362
aI10907703
aI10918312
aI10917029
aI10917025
aI10904744
aI10912239
aI10918184
aI10918188
aI10918205
aI10911450
aI10745217
aI10651234
aI10733162
aI10548858
aI10922273
aI10921956
aI10921940
aI10921933
aI10921791
aI10921701
aI10958514
aI10958517
aI10958511
aI10764187
aI10764211
aI10764185
aI10764186
aI10764201
aI10992354
aI10588421
aI10579823
aI10577161
aI10557522
aI10734470
aI10734633
aI10921392
aI10945689
aI10945597
aI10921319
aI10921320
aI10638652
aI10992915
aI10736746
aI10657526
aI10721057
aI10752428
aI10752421
aI10754180
aI10754177
aI10754163
aI10781033
aI10756454
aI10644725
aI10899328
aI10941142
aI10938627
aI10925236
aI10713347
aI10640354
aI10644625
aI10644626
aI10563983
aI10640036
aI10988417
aI10998824
aI10997426
aI10991971
aI10752413
aI10655157
aI10738140
aI10732595
aI10758625
aI10758626
aI10890429
aI10890430
aI10890436
aI10890425
aI10636793
aI10657563
aI10657562
aI10657561
aI10921505
aI10582511
aI10584529
aI10633159
aI10942078
aI10942082
aI10941952
aI10945442
aI10945443
aI10945380
aI10945398
aI10945392
aI10738003
aI10754183
aI10754175
aI10921110
aI10921102
aI10921098
aI10921500
aI10590555
aI10629257
aI10588625
aI10508154
aI10522302
aI10553507
aI10646981
aI10638915
aI10579071
aI10644395
aI10581257
aI10647566
aI10580978
aI10580979
aI10572788
aI10592447
aI10598326
aI10598331
aI10601137
aI10601163
aI10606320
aI10621600
aI10635822
aI10644022
aI10655324
aI10655340
aI10655451
aI10655491
aI10655530
aI10655559
aI10655567
aI10655905
aI10656422
aI10676348
aI10676367
aI10676511
aI10645012
aI10592056
aI10707594
aI10910589
aI10652397
aI10710175
aI10710162
aI10710167
aI10710163
aI10710168
aI10642606
aI10703173
aI10696466
aI10695397
aI10525187
aI10592637
aI10710645
aI10710412
aI10703459
aI10703485
aI10702596
aI10702652
aI10701443
aI10701470
aI10701547
aI10701549
aI10701645
aI10701730
aI10695763
aI10695215
aI10694499
aI10694429
aI10537676
aI10544920
aI10544951
aI10550711
aI10544524
aI10544541
aI10544571
aI10544572
aI10544579
aI10544580
aI10544591
aI10544595
aI10544596
aI10544597
aI10525168
aI10525209
aI10526906
aI10526923
aI10526949
aI10526994
aI10527006
aI10527034
aI10527056
aI10527057
aI10527058
aI10527059
aI10527060
aI10527061
aI10527062
aI10527103
aI10527104
aI10544658
aI10527206
aI10527313
aI10527377
aI10527389
aI10527436
aI10526693
aI10527674
aI10527675
aI10527687
aI10527294
aI10527688
aI10527836
aI10527837
aI10527842
aI10527843
aI10527903
aI10527925
aI10537687
aI10528028
aI10528029
aI10528079
aI10528080
aI10528106
aI10528112
aI10528179
aI10526522
aI10528204
aI10528230
aI10747659
aI10747660
aI10710219
aI10676358
aI10676219
aI10656434
aI10655046
aI10655467
aI10676362
aI10646457
aI10574270
aI10641691
aI10759429
aI10759426
aI10644747
aI10593863
aI10575856
aI10714397
aI10645181
aI10575853
aI10516766
aI10520609
aI10577425
aI10713922
aI10641815
aI10521165
aI10519752
aI10644748
aI10644090
aI10509255
aI10520336
aI10522328
aI10614092
aI10522370
aI10633581
aI10523687
aI10567699
aI10617827
aI10713921
aI10676390
aI10691909
aI10888891
aI10692089
aI10896325
aI10576472
aI10645183
aI10692085
aI10632909
aI10519748
aI10648272
aI10512678
aI10635097
aI10523598
aI10524458
aI10523528
aI10596322
aI10524332
aI10522291
aI10523542
aI10655346
aI10676507
aI10519904
aI10676860
aI10520344
aI10521178
aI10632912
aI10578817
aI10573739
aI10683147
aI10696482
aI10615714
aI10684942
aI10567909
aI10655446
aI10649688
aI10686904
aI10696656
aI10696657
aI10696818
aI10696854
aI10722834
aI10696666
aI10700714
aI10701097
aI10701071
aI10701087
aI10696786
aI10696638
aI10696639
aI10696675
aI10698592
aI10721976
aI10719383
aI10699052
aI10722354
aI10699696
aI10696972
aI10709459
aI10722489
aI10699548
aI10699549
aI10722204
aI10699710
aI10721865
aI10696634
aI10696644
aI10651318
aI10666636
aI10697222
aI10700319
aI10521364
aI10698270
aI10698262
aI10697231
aI10697373
aI10698112
aI10697669
aI10700088
aI10685828
aI10700447
aI10708449
aI10549779
aI10700492
aI10700765
aI10700111
aI10700335
aI10700347
aI10700119
aI10699335
aI10709644
aI10697105
aI10701017
aI10701020
aI10701026
aI10701016
aI10697401
aI10696586
aI10697596
aI10701000
aI10701001
aI10700997
aI10696618
aI10700992
aI10696615
aI10696624
aI10696643
aI10696662
aI10697186
aI10700538
aI10700708
aI10710135
aI10710049
aI10696587
aI10709959
aI10709901
aI10707598
aI10709957
aI10708984
aI10709892
aI10708988
aI10698203
aI10709935
aI10698937
aI10698210
aI10698180
aI10698918
aI10710013
aI10708543
aI10697509
aI10698613
aI10700086
aI10700806
aI10698590
aI10700717
aI10698583
aI10700774
aI10698609
aI10697000
aI10655952
aI10728552
aI10904512
aI10803528
aI10574516
aI10575852
aI10553914
aI10523834
aI10598205
aI10598206
aI10599889
aI10598813
aI10598913
aI10597537
aI10596972
aI10600391
aI10597969
aI10598967
aI10685098
aI10669697
aI10684520
aI10684605
aI10676072
aI10599878
aI10656193
aI10590967
aI10590962
aI10650864
aI10595597
aI10650088
aI10650090
aI10685039
aI10685040
aI10685022
aI10685043
aI10685058
aI10685234
aI10685271
aI10692792
aI10692807
aI10693809
aI10685264
aI10693799
aI10693797
aI10693786
aI10693784
aI10693774
aI10693764
aI10693739
aI10693737
aI10693732
aI10685065
aI10685066
aI10711055
aI10644977
aI10647836
aI10680488
aI10680057
aI10679730
aI10679069
aI10655739
aI10677113
aI10677121
aI10597894
aI10641739
aI10920977
aI10924360
aI10924361
aI10924363
aI10935270
aI10639196
aI10700136
aI10501627
aI10563548
aI10563552
aI10563553
aI10563554
aI10564942
aI10572212
aI10650636
aI10575804
aI10575849
aI10576048
aI10576199
aI10576381
aI10584284
aI10588237
aI10589270
aI10590738
aI10592291
aI10592510
aI10593719
aI10593751
aI10634503
aI10593964
aI10593966
aI10593974
aI10644117
aI10600076
aI10600869
aI10600881
aI10600884
aI10600886
aI10600887
aI10600888
aI10600894
aI10600876
aI10615893
aI10619954
aI10619955
aI10621133
aI10621389
aI10628041
aI10520615
aI10643038
aI10643391
aI10643392
aI10643393
aI10643588
aI10645539
aI10650717
aI10654685
aI10559749
aI10655300
aI10655422
aI10656170
aI10656438
aI10673604
aI10674304
aI10674309
aI10676223
aI10676569
aI10677203
aI10679973
aI10689435
aI10689470
aI10689471
aI10692382
aI10700041
aI10647800
aI10586502
aI10675946
aI10629290
aI10678951
aI10629789
aI10995709
aI10631134
aI10658538
aI10686977
aI10571515
aI10686736
aI10501073
aI10594824
aI10549790
aI10649724
aI10653554
aI10992974
aI10752528
aI10765943
aI10678554
aI10642025
aI10593941
aI10641840
aI10564082
aI10635740
aI10636492
aI10639251
aI10523361
aI10647007
aI10677169
aI10694165
aI10795000
aI10679503
aI10853776
aI10853684
aI10853765
aI10657901
aI10985148
aI10707103
aI10678582
aI10678581
aI10692664
aI10516532
aI10700808
aI10789758
aI10789760
aI10789766
aI10872616
aI10690046
aI10898540
aI10652931
aI10584556
aI10790474
aI10878886
aI10792715
aI10818904
aI10638237
aI10709666
aI10691414
aI10714387
aI10714376
aI10695582
aI10694220
aI10582261
aI10644223
aI10874270
aI10874271
aI10851328
aI10692579
aI10679063
aI10860301
aI10721840
aI10913190
aI10823637
aI10823631
aI10693727
aI10679096
aI10810172
aI10752543
aI10920485
aI10843670
aI10591155
aI10691247
aI10812989
aI10691331
aI10691446
aI10691447
aI10691340
aI10691332
aI10691330
aI10691451
aI10691423
aI10857314
aI10753203
aI10606108
aI10577305
aI10645948
aI10649395
aI10691325
aI10775398
aI10522288
aI10567395
aI10590303
aI10578957
aI10583805
aI10592014
aI10592481
aI10592575
aI10593027
aI10598788
aI10606047
aI10632944
aI10632945
aI10640958
aI10641491
aI10644701
aI10648078
aI10649490
aI10650071
aI10686161
aI10689832
aI10520087
aI10655780
aI10655779
aI10626374
aI10691401
aI10893127
aI10570593
aI10949550
aI10581907
aI10591601
aI10591606
aI10591638
aI10648778
aI10649489
aI10679813
aI10680081
aI10680198
aI10680594
aI10686027
aI10689988
aI10691433
aI10691454
aI10692295
aI10692611
aI10511106
aI10692610
aI10680199
aI10680176
aI10680319
aI10680223
aI10680174
aI10680219
aI10680184
aI10680203
aI10680169
aI10680191
aI10680177
aI10680320
aI10680227
aI10680192
aI10680209
aI10680214
aI10680181
aI10691409
aI10686290
aI10655676
aI10686251
aI10698877
aI10707040
aI10699351
aI10699555
aI10709754
aI10699266
aI10505949
aI10696680
aI10505953
aI10505768
aI10954417
aI10521164
aI10519729
aI10639833
aI10520617
aI10644263
aI10692609
aI10649249
aI10692652
aI10641551
aI10692649
aI10692657
aI10652626
aI10995151
aI10652346
aI10708020
aI10699472
aI10922331
aI10560389
aI10568790
aI10575868
aI10592543
aI10593978
aI10594436
aI10506021
aI10641933
aI10643427
aI10644265
aI10644883
aI10648033
aI10648626
aI10655555
aI10873191
aI10686020
aI10690286
aI10691327
aI10692547
aI10571302
aI10571300
aI10576075
aI10585517
aI10636061
aI10643514
aI10643832
aI10645774
aI10655703
aI10670073
aI10707347
aI10809230
aI10809234
aI10780323
aI10782592
aI10773711
aI10781456
aI10909922
aI10636563
aI10775048
aI10775065
aI10775059
aI10729232
aI10744548
aI10744547
aI10744549
aI10777918
aI10764857
aI10746753
aI10746467
aI10746473
aI10746468
aI10746462
aI10746460
aI10746466
aI10746464
aI10746475
aI10740898
aI10784086
aI10907248
aI10757016
aI10732163
aI10744633
aI10984835
aI10744446
aI10744447
aI10917010
aI10572131
aI10750684
aI10744333
aI10744328
aI10750685
aI10735769
aI10735768
aI10741070
aI10780343
aI10780415
aI10745891
aI10740449
aI10740452
aI10735659
aI10744686
aI10756918
aI10751230
aI10742071
aI10744315
aI10783827
aI10737634
aI10737637
aI10737629
aI10737654
aI10737640
aI10737648
aI10976029
aI10756701
aI10983748
aI10700158
aI10527284
aI10984937
aI10818423
aI10734956
aI10755985
aI10695984
aI10581773
aI10711872
aI10713079
aI10647681
aI10553303
aI10572862
aI10591482
aI10599972
aI10641678
aI10643483
aI10649268
aI10650222
aI10654608
aI10793389
aI10683827
aI10691240
aI10692390
aI10700881
aI10700882
aI10596577
aI10643818
aI10647278
aI10647388
aI10633453
aI10686201
aI10686202
aI10647266
aI10568239
aI10553827
aI10632923
aI10644960
aI10644961
aI10569753
aI10515559
aI10515573
aI10513382
aI10993395
aI10993326
aI10635979
aI10996443
aI10684765
aI10996445
aI10653121
aI10999043
aI10997059
aI10994044
aI10994009
aI10994884
aI10995241
aI10995697
aI10995707
aI10999053
aI10649120
aI10585879
aI10692961
aI10655977
aI10567830
aI10614094
aI10991407
aI10644925
aI10648434
aI10649319
aI10592142
aI10523538
aI10577990
aI10921242
aI10922073
aI10935762
aI10935786
aI10550098
aI10922058
aI10692263
aI10591157
aI10591158
aI10591159
aI10702211
aI10702195
aI10633919
aI10633875
aI10633425
aI10633787
aI10633815
aI10633818
aI10684111
aI10684201
aI10999743
aI10576013
aI10636932
aI10640028
aI10644080
aI10651597
aI10660965
aI10700135
aI10640525
aI10754261
aI10754266
aI10755058
aI10641071
aI10680318
aI10641709
aI10518756
aI10635728
aI10634856
aI10633310
aI10634791
aI10646166
aI10650778
aI10642837
aI10644987
aI10536958
aI10572476
aI10601610
aI10568119
aI10636453
aI10650070
aI10996510
aI10694336
aI10852803
aI10717643
aI10753207
aI10753156
aI10717391
aI10633331
aI10600233
aI10685812
aI10785933
aI10594834
aI10673298
aI10697455
aI10697456
aI10686053
aI10686059
aI10694219
aI10991094
aI10595508
aI10577645
aI10638933
aI10640152
aI10640907
aI10648357
aI10648358
aI10649488
aI10649629
aI10649984
aI10650311
aI10669936
aI10683946
aI10686070
aI10686162
aI10689654
aI10694246
aI10552462
aI10550443
aI10550448
aI10679704
aI10589827
aI10619929
aI10654623
aI10570998
aI10571069
aI10599951
aI10577586
aI10926416
aI10689964
aI10656722
aI10656721
aI10585987
aI10595863
aI10635690
aI10699435
aI10952455
aI10697104
aI10549989
aI10657026
aI10568888
aI10698946
aI10707400
aI10700939
aI10550599
aI10708754
aI10699749
aI10709408
aI10720384
aI10821201
aI10844944
aI10821046
aI10790316
aI10810624
aI10813546
aI10815963
aI10790351
aI10867218
aI10867380
aI10861332
aI10820166
aI10819228
aI10817222
aI10866631
aI10815403
aI10796076
aI10855039
aI10866693
aI10861536
aI10805860
aI10790320
aI10895733
aI10863067
aI10855753
aI10863324
aI10793874
aI10820164
aI10813421
aI10848422
aI10806069
aI10813536
aI10791369
aI10837049
aI10818840
aI10859985
aI10889115
aI10791486
aI10813407
aI10866641
aI10855743
aI10818874
aI10790981
aI10822432
aI10799583
aI10794685
aI10815928
aI10791440
aI10848912
aI10818701
aI10796490
aI10863844
aI10798702
aI10810879
aI10813524
aI10847248
aI10666587
aI10813002
aI10863107
aI10856598
aI10863709
aI10862129
aI10790445
aI10821024
aI10858862
aI10861936
aI10819927
aI10808740
aI10819131
aI10860766
aI10817084
aI10820142
aI10807193
aI10832173
aI10873039
aI10844927
aI10833054
aI10795636
aI10821252
aI10807002
aI10806093
aI10859472
aI10853284
aI10879865
aI10819372
aI10810404
aI10833582
aI10855667
aI10794943
aI10810295
aI10863183
aI10807635
aI10892038
aI10866222
aI10815348
aI10791858
aI10857412
aI10863384
aI10853319
aI10791306
aI10790410
aI10790893
aI10815411
aI10832158
aI10813802
aI10794204
aI10824146
aI10799587
aI10840064
aI10834465
aI10856305
aI10860839
aI10859989
aI10790417
aI10863059
aI10815248
aI10848436
aI10820150
aI10856626
aI10863337
aI10819799
aI10859480
aI10790920
aI10866695
aI10815417
aI10790628
aI10940285
aI10857865
aI10794663
aI10851729
aI10864399
aI10794669
aI10859434
aI10818730
aI10912704
aI10843625
aI10819953
aI10867395
aI10857832
aI10807218
aI10867142
aI10792926
aI10815988
aI10867454
aI10791302
aI10867329
aI10815374
aI10833034
aI10855023
aI10862303
aI10866029
aI10859979
aI10812934
aI10832169
aI10794365
aI10851341
aI10867481
aI10859470
aI10820144
aI10853067
aI10791248
aI10867509
aI10810448
aI10860343
aI10812636
aI10819833
aI10859636
aI10855007
aI10840273
aI10863118
aI10851808
aI10843123
aI10813114
aI10791071
aI10796051
aI10795600
aI10815940
aI10690603
aI10843627
aI10866212
aI10853382
aI10843647
aI10848131
aI10813254
aI10791200
aI10807507
aI10859271
aI10855037
aI10849017
aI10860665
aI10873051
aI10866668
aI10861541
aI10815409
aI10815981
aI10817196
aI10815279
aI10804927
aI10861496
aI10863112
aI10859464
aI10825219
aI10791495
aI10853950
aI10867124
aI10813051
aI10815283
aI10844108
aI10818850
aI10848141
aI10866441
aI10847560
aI10866674
aI10867190
aI10790891
aI10807189
aI10829012
aI10832721
aI10853304
aI10866053
aI10794986
aI10790415
aI10866190
aI10805669
aI10859833
aI10873049
aI10866220
aI10854578
aI10834188
aI10867274
aI10818922
aI10854612
aI10838121
aI10833688
aI10858728
aI10807294
aI10827784
aI10802384
aI10844635
aI10832571
aI10815938
aI10796326
aI10813365
aI10818703
aI10852112
aI10863840
aI10863267
aI10867172
aI10837047
aI10811832
aI10815322
aI10855487
aI10795422
aI10861924
aI10867358
aI10873047
aI10859829
aI10820090
aI10815270
aI10863366
aI10867292
aI10861724
aI10813139
aI10792617
aI10865750
aI10791087
aI10794515
aI10804490
aI10818742
aI10621388
aI10802258
aI10852797
aI10836856
aI10843633
aI10820065
aI10860833
aI10836847
aI10821028
aI10866049
aI10854540
aI10867596
aI10867278
aI10790441
aI10806107
aI10848143
aI10845317
aI10791430
aI10795705
aI10791288
aI10810446
aI10867378
aI10867180
aI10794998
aI10795756
aI10856126
aI10843518
aI10835831
aI10846809
aI10847546
aI10856614
aI10843798
aI10820460
aI10790279
aI10824622
aI10791849
aI10836720
aI10807200
aI10856008
aI10867426
aI10873043
aI10867325
aI10839071
aI10824614
aI10807064
aI10795002
aI10792587
aI10859454
aI10792619
aI10852807
aI10808353
aI10847618
aI10796400
aI10863061
aI10847074
aI10866252
aI10807231
aI10851689
aI10791611
aI10866214
aI10790413
aI10807509
aI10791607
aI10863905
aI10813542
aI10851854
aI10859503
aI10805512
aI10860971
aI10839659
aI10857014
aI10863082
aI10863057
aI10791250
aI10819324
aI10805296
aI10819073
aI10845102
aI10791192
aI10791198
aI10790408
aI10860078
aI10890554
aI10791172
aI10794061
aI10866284
aI10844595
aI10807253
aI10810895
aI10666594
aI10829893
aI10802439
aI10866159
aI10795680
aI10855619
aI10855011
aI10856317
aI10859482
aI10861228
aI10867442
aI10856044
aI10860837
aI10804596
aI10853409
aI10810929
aI10791935
aI10793052
aI10832197
aI10863009
aI10867519
aI10832160
aI10852819
aI10860875
aI10859774
aI10811223
aI10813498
aI10832179
aI10813500
aI10833592
aI10864893
aI10815330
aI10862990
aI10819077
aI10813592
aI10835369
aI10808114
aI10859981
aI10840440
aI10856606
aI10862108
aI10859835
aI10833565
aI10822929
aI10856329
aI10794266
aI10847442
aI10822156
aI10867334
aI10819336
aI10866157
aI10810860
aI10856398
aI10820094
aI10863809
aI10791154
aI10796806
aI10867090
aI10818691
aI10843042
aI10882501
aI10819370
aI10815983
aI10868256
aI10859622
aI10790906
aI10856592
aI10790322
aI10814571
aI10815965
aI10819316
aI10821026
aI10860345
aI10810764
aI10791351
aI10810281
aI10863101
aI10866689
aI10815944
aI10692268
aI10792482
aI10815297
aI10791474
aI10853280
aI10816882
aI10813014
aI10792951
aI10848428
aI10817099
aI10815996
aI10815277
aI10863047
aI10795006
aI10832723
aI10791298
aI10859928
aI10866155
aI10791216
aI10812514
aI10832177
aI10813556
aI10818713
aI10867515
aI10861518
aI10861737
aI10861616
aI10844106
aI10865468
aI10855635
aI10817190
aI10803867
aI10821203
aI10795148
aI10867317
aI10805283
aI10861359
aI10835227
aI10820784
aI10859516
aI10863034
aI10802637
aI10867229
aI10864825
aI10859999
aI10867294
aI10862744
aI10880446
aI10845072
aI10795975
aI10818721
aI10862365
aI10790712
aI10809357
aI10857867
aI10854890
aI10791294
aI10860620
aI10865489
aI10851607
aI10832498
aI10837054
aI10867529
aI10832535
aI10839398
aI10813952
aI10861661
aI10873045
aI10840089
aI10864076
aI10820620
aI10843955
aI10638096
aI10866419
aI10863192
aI10861751
aI10860109
aI10843953
aI10813558
aI10810303
aI10820248
aI10831977
aI10791361
aI10875476
aI10842527
aI10859518
aI10818831
aI10809110
aI10866852
aI10831314
aI10804622
aI10801883
aI10860170
aI10816884
aI10695911
aI10806443
aI10790960
aI10865071
aI10791953
aI10860215
aI10854470
aI10815942
aI10864942
aI10844100
aI10820667
aI10861749
aI10851624
aI10856608
aI10851973
aI10832541
aI10866639
aI10844643
aI10808687
aI10867364
aI10866047
aI10867397
aI10794976
aI10852841
aI10847440
aI10818738
aI10794125
aI10805796
aI10856624
aI10847454
aI10791355
aI10832195
aI10791729
aI10873060
aI10833414
aI10860736
aI10803801
aI10867296
aI10865480
aI10805311
aI10695910
aI10815399
aI10825390
aI10812125
aI10861346
aI10790889
aI10837056
aI10791016
aI10802369
aI10814834
aI10836807
aI10815407
aI10833167
aI10863380
aI10994655
aI10578964
aI10675394
aI10509598
aI10599947
aI10606068
aI10648638
aI10657933
aI10626792
aI10626793
aI10649047
aI10650784
aI10615715
aI10643864
aI10710947
aI10710963
aI10549546
aI10567700
aI10581256
aI10684725
aI10520616
aI10676165
aI10545287
aI10545151
aI10545155
aI10545196
aI10545197
aI10545198
aI10545204
aI10545205
aI10545229
aI10545259
aI10545262
aI10545266
aI10545312
aI10545318
aI10545319
aI10545320
aI10545321
aI10545102
aI10545322
aI10545324
aI10545326
aI10545327
aI10545103
aI10545328
aI10545104
aI10545107
aI10545329
aI10545108
aI10545109
aI10545110
aI10545111
aI10545112
aI10545114
aI10545115
aI10545330
aI10545116
aI10545332
aI10545333
aI10545334
aI10545335
aI10545336
aI10545337
aI10545340
aI10545341
aI10545342
aI10545343
aI10545373
aI10545406
aI10545345
aI10545347
aI10545350
aI10545413
aI10545416
aI10545419
aI10545422
aI10545431
aI10545437
aI10545439
aI10545441
aI10545444
aI10545447
aI10545450
aI10545451
aI10545452
aI10545453
aI10545461
aI10545462
aI10545463
aI10545466
aI10545469
aI10545472
aI10545473
aI10545476
aI10545477
aI10545478
aI10545481
aI10545483
aI10545484
aI10545488
aI10545500
aI10545501
aI10545502
aI10545503
aI10545504
aI10545510
aI10545284
aI10545285
aI10545286
aI10545289
aI10545290
aI10545291
aI10545292
aI10545293
aI10545294
aI10545296
aI10545299
aI10545300
aI10545301
aI10545302
aI10817557
aI10680173
aI10780542
aI10784251
aI10775022
aI10864926
aI10732293
aI10817626
aI10680210
aI10680222
aI10689878
aI10689876
aI10680202
aI10680193
aI10680168
aI10680197
aI10680226
aI10680166
aI10629157
aI10680190
aI10680187
aI10680205
aI10601025
aI10888599
aI10950267
aI10680200
aI10680215
aI10949143
aI10949129
aI10844916
aI10572469
aI10925060
aI10890379
aI10633129
aI10757407
aI10758387
aI10947752
aI10680303
aI10921527
aI10780544
aI10888468
aI10692566
aI10950326
aI10844910
aI10728549
aI10902415
aI10834184
aI10813081
aI10679974
aI10680330
aI10644308
aI10805647
aI10686035
aI10594189
aI10621231
aI10657961
aI10909322
aI10774636
aI10776279
aI10907946
aI10805924
aI10723970
aI10818179
aI10680179
aI10680180
aI10680186
aI10680175
aI10680225
aI10680178
aI10680195
aI10951381
aI10589533
aI10686260
aI10690983
aI10690981
aI10596284
aI10639642
aI10782341
aI10903673
aI10749082
aI10693894
aI10912666
aI10582075
aI10725180
aI10779001
aI10906697
aI10921925
aI10921911
aI10817937
aI10817999
aI10867178
aI10600885
aI10807506
aI10768805
aI10766308
aI10788519
aI10768987
aI10788356
aI10680326
aI10680327
aI10921509
aI10779639
aI10917411
aI10700715
aI10824856
aI10692262
aI10692276
aI10940446
aI10933459
aI10954109
aI10944238
aI10728558
aI10768371
aI10761931
aI10761546
aI10825065
aI10790619
aI10815914
aI10874122
aI10782126
aI10758652
aI10769422
aI10775368
aI10545559
aI10547874
aI10547783
aI10547119
aI10546717
aI10545788
aI10548539
aI10994969
aI10547204
aI10549214
aI10547878
aI10545819
aI10547879
aI10549390
aI10547992
aI10590697
aI10547522
aI10548531
aI10547207
aI10547298
aI10548314
aI10549700
aI10549754
aI10549755
aI10549878
aI10549887
aI10549902
aI10707319
aI10715004
aI10713164
aI10718185
aI10700169
aI10636560
aI10718835
aI10591130
aI10591129
aI10591120
aI10591122
aI10699542
aI10711827
aI10709559
aI10636530
aI10714997
aI10591138
aI10700074
aI10718168
aI10714388
aI10699945
aI10700000
aI10699824
aI10591179
aI10591123
aI10591163
aI10591119
aI10699210
aI10699915
aI10699815
aI10699952
aI10699236
aI10699954
aI10550298
aI10550295
aI10550140
aI10550075
aI10550076
aI10550077
aI10550243
aI10550252
aI10550294
aI10550147
aI10550230
aI10550289
aI10550256
aI10550101
aI10550102
aI10550242
aI10550093
aI10550094
aI10550282
aI10550103
aI10550248
aI10550198
aI10550199
aI10550070
aI10550078
aI10550104
aI10550151
aI10550178
aI10550296
aI10550179
aI10550149
aI10550183
aI10550232
aI10550233
aI10550073
aI10550150
aI10550096
aI10550249
aI10550193
aI10550095
aI10550202
aI10550523
aI10550416
aI10550483
aI10550511
aI10550529
aI10550445
aI10550449
aI10550450
aI10550451
aI10550452
aI10550453
aI10550454
aI10550455
aI10550458
aI10550476
aI10550482
aI10550524
aI10550456
aI10550479
aI10550485
aI10550491
aI10550515
aI10550484
aI10550488
aI10550522
aI10550512
aI10550514
aI10550408
aI10550518
aI10550420
aI10550428
aI10550532
aI10550486
aI10550549
aI10643337
aI10674317
aI10649016
aI10617819
aI10840949
aI10644145
aI10685893
aI10685911
aI10692716
aI10566884
aI10639132
aI10636544
aI10596339
aI10573182
aI10993758
aI10650937
aI10566419
aI10765931
aI10641605
aI10642518
aI10591909
aI10598976
aI10687131
aI10502649
aI10635424
aI10634958
aI10634960
aI10586064
aI10519705
aI10635078
aI10635079
aI10635081
aI10635084
aI10670041
aI10670134
aI10677096
aI10691430
aI10872875
aI10792932
aI10872689
aI10812538
aI10872620
aI10872614
aI10872602
aI10835964
aI10821221
aI10829800
aI10837001
aI10856273
aI10856327
aI10836376
aI10834549
aI10805871
aI10805894
aI10805865
aI10805890
aI10866587
aI10866589
aI10830239
aI10824244
aI10841975
aI10848768
aI10848533
aI10830884
aI10830878
aI10817455
aI10817453
aI10830925
aI10817169
aI10872668
aI10872664
aI10872682
aI10834419
aI10850152
aI10872595
aI10818981
aI10835777
aI10812338
aI10820128
aI10804633
aI10821114
aI10805144
aI10831692
aI10831677
aI10831673
aI10873678
aI10820689
aI10849029
aI10848623
aI10849025
aI10849001
aI10849023
aI10848576
aI10849160
aI10849015
aI10848739
aI10849013
aI10848267
aI10849011
aI10849007
aI10849162
aI10849003
aI10800134
aI10819127
aI10835992
aI10843521
aI10842396
aI10820717
aI10854327
aI10854351
aI10799572
aI10813780
aI10829026
aI10752547
aI10844861
aI10844869
aI10844855
aI10812348
aI10844884
aI10843369
aI10790675
aI10790665
aI10793925
aI10793919
aI10793917
aI10793915
aI10815698
aI10792971
aI10850879
aI10791227
aI10842399
aI10833928
aI10800108
aI10804891
aI10680183
aI10680207
aI10680321
aI10680206
aI10680171
aI10680170
aI10853548
aI10853616
aI10853308
aI10816420
aI10819849
aI10811547
aI10802629
aI10787593
aI10593928
aI10594022
aI10686121
aI10586139
aI10689458
aI10524087
aI10655604
aI10655605
aI10692158
aI10699417
aI10655404
aI10686163
aI10576133
aI10817615
aI10692215
aI10927955
aI10579064
aI10666931
aI10769400
aI10768997
aI10777483
aI10787012
aI10756922
aI10755810
aI10769080
aI10756679
aI10522327
aI10700371
aI10700358
aI10700359
aI10580366
aI10857796
aI10833125
aI10643607
aI10657234
aI10686181
aI10552333
aI10587211
aI10618340
aI10686166
aI10775359
aI10775341
aI10783694
aI10779751
aI10782650
aI10776287
aI10775450
aI10775326
aI10786099
aI10780170
aI10775413
aI10578962
aI10686125
aI10581042
aI10599950
aI10652088
aI10684486
aI10686057
aI10635002
aI10654405
aI10684487
aI10700883
aI10782307
aI10786910
aI10845165
aI10564304
aI10645747
aI10649404
aI10649453
aI10649454
aI10653227
aI10655943
aI10684879
aI10684880
aI10685241
aI10692265
aI10692260
aI10692261
aI10565659
aI10576947
aI10581009
aI10590590
aI10638887
aI10638895
aI10643190
aI10646456
aI10650207
aI10655044
aI10571842
aI10576104
aI10581129
aI10642998
aI10563273
aI10723402
aI10774130
aI10756224
aI10786969
aI10786944
aI10786927
aI10786894
aI10787065
aI10781143
aI10781140
aI10776753
aI10854309
aI10833660
aI10866495
aI10775757
aI10874677
aI10768690
aI10768788
aI10788637
aI10788580
aI10788444
aI10788389
aI10770087
aI10638873
aI10594294
aI10600008
aI10653036
aI10656209
aI10685978
aI10646355
aI10589007
aI10586429
aI10591156
aI10639310
aI10664700
aI10674342
aI10873116
aI10873335
aI10694208
aI10575421
aI10620751
aI10579666
aI10591615
aI10634906
aI10634998
aI10634999
aI10635004
aI10635014
aI10635016
aI10635069
aI10635075
aI10635077
aI10635091
aI10635095
aI10635111
aI10635119
aI10635121
aI10644056
aI10652264
aI10873209
aI10873468
aI10675500
aI10873187
aI10693753
aI10790141
aI10567823
aI10580055
aI10634786
aI10654877
aI10670723
aI10517032
aI10638728
aI10640242
aI10643345
aI10655221
aI10666538
aI10691277
aI10586298
aI10569282
aI10581481
aI10650413
aI10652643
aI10653344
aI10654048
aI10657512
aI10664692
aI10873446
aI10873217
aI10873483
aI10873457
aI10873640
aI10873163
aI10873440
aI10641455
aI10873310
aI10793678
aI10793638
aI10793392
aI10793449
aI10793406
aI10873276
aI10873610
aI10873273
aI10793403
aI10873174
aI10873093
aI10873171
aI10873265
aI10793384
aI10873181
aI10793548
aI10793628
aI10793398
aI10873509
aI10793395
aI10792096
aI10793511
aI10793694
aI10873492
aI10873486
aI10873480
aI10873477
aI10793752
aI10873316
aI10873297
aI10699500
aI10699496
aI10699522
aI10709767
aI10709807
aI10893510
aI10912595
aI10700053
aI10700049
aI10699780
aI10640761
aI10699332
aI10701070
aI10709163
aI10707893
aI10701084
aI10709164
aI10707629
aI10707895
aI10708943
aI10709259
aI10707448
aI10708594
aI10710157
aI10707890
aI10700895
aI10700916
aI10700857
aI10707996
aI10700901
aI10700912
aI10700913
aI10708064
aI10701122
aI10708528
aI10709112
aI10708870
aI10707805
aI10709319
aI10708642
aI10707529
aI10708645
aI10708298
aI10708620
aI10709213
aI10701121
aI10708758
aI10709322
aI10697382
aI10700935
aI10709324
aI10701082
aI10700855
aI10701073
aI10708795
aI10707859
aI10700890
aI10707834
aI10707698
aI10708542
aI10698065
aI10560969
aI10587654
aI10646365
aI10646409
aI10655719
aI10677308
aI10677312
aI10678745
aI10591753
aI10783702
aI10550435
aI10550391
aI10550413
aI10817627
aI10650841
aI10781179
aI10545233
aI10711753
aI10550414
aI10550434
aI10700208
aI10550406
aI10633873
aI10548089
aI10550493
aI10728578
aI10550410
aI10550421
aI10550405
aI10549756
aI10550489
aI10781189
aI10700264
aI10550477
aI10550333
aI10550226
aI10784956
aI10549549
aI10545579
aI10550507
aI10550394
aI10719122
aI10547211
aI10550427
aI10550429
aI10545325
aI10549789
aI10700261
aI10641230
aI10550281
aI10777975
aI10545125
aI10550497
aI10550332
aI10545430
aI10728387
aI10550136
aI10715084
aI10550227
aI10571265
aI10573425
aI10583884
aI10590059
aI10591080
aI10591083
aI10606316
aI10618926
aI10624841
aI10625258
aI10636092
aI10636441
aI10636525
aI10642927
aI10644394
aI10646346
aI10676694
aI10709496
aI10709640
aI10709664
aI10696821
aI10696825
aI10709363
aI10709415
aI10707345
aI10709465
aI10707025
aI10709461
aI10709351
aI10709379
aI10709503
aI10709418
aI10709533
aI10706993
aI10709578
aI10707346
aI10709474
aI10696847
aI10709599
aI10707329
aI10709510
aI10709391
aI10709529
aI10707018
aI10709443
aI10709602
aI10709427
aI10709605
aI10709460
aI10696824
aI10709360
aI10709552
aI10709426
aI10707338
aI10697313
aI10994306
aI10994283
aI10996152
aI10509484
aI10509493
aI10916274
aI10553101
aI10553133
aI10553143
aI10553152
aI10553233
aI10553248
aI10553259
aI10553272
aI10553274
aI10553276
aI10553312
aI10553545
aI10553553
aI10553572
aI10553581
aI10554282
aI10561081
aI10561728
aI10567740
aI10567925
aI10572523
aI10573926
aI10515369
aI10594266
aI10632344
aI10643343
aI10644138
aI10644495
aI10644500
aI10644504
aI10644509
aI10645083
aI10645119
aI10647628
aI10647810
aI10647815
aI10649301
aI10650388
aI10651691
aI10651705
aI10655068
aI10656200
aI10656950
aI10657029
aI10657065
aI10657071
aI10657381
aI10657432
aI10657474
aI10657477
aI10657478
aI10657487
aI10657490
aI10657492
aI10657493
aI10657495
aI10657686
aI10657702
aI10660532
aI10676874
aI10684635
aI10686864
aI10686952
aI10688378
aI10699985
aI10699225
aI10561076
aI10609352
aI10580203
aI10641535
aI10642451
aI10556903
aI10615841
aI10685981
aI10643356
aI10607461
aI10609348
aI10566828
aI10556377
aI10606221
aI10609359
aI10561164
aI10566156
aI10615838
aI10560705
aI10650724
aI10615759
aI10675895
aI10633204
aI10606250
aI10698026
aI10698982
aI10698986
aI10698985
aI10633918
aI10633863
aI10633933
aI10633903
aI10629301
aI10594877
aI10579850
aI10651440
aI10629289
aI10655996
aI10600461
aI10618825
aI10620627
aI10613230
aI10600604
aI10600502
aI10600498
aI10600499
aI10607601
aI10600452
aI10620159
aI10600539
aI10600542
aI10600479
aI10600483
aI10680532
aI10600495
aI10600579
aI10600573
aI10723604
aI10723601
aI10584559
aI10601149
aI10726712
aI10726526
aI10726964
aI10726049
aI10725897
aI10726149
aI10725971
aI10725765
aI10725747
aI10594220
aI10600784
aI10600785
aI10635206
aI10946068
aI10945516
aI10945509
aI10945512
aI10947481
aI10947262
aI10947097
aI10578120
aI10727767
aI10700627
aI10700634
aI10951992
aI10948922
aI10949113
aI10949132
aI10949212
aI10709783
aI10709813
aI10580677
aI10948272
aI10952451
aI10952209
aI10952657
aI10952674
aI10953422
aI10938027
aI10938896
aI10939794
aI10658183
aI10939994
aI10917368
aI10915897
aI10919474
aI10906230
aI10905232
aI10907956
aI10907914
aI10906421
aI10908871
aI10593275
aI10518361
aI10523555
aI10666595
aI10878172
aI10881806
aI10874678
aI10877347
aI10599414
aI10888190
aI10883924
aI10883708
aI10883706
aI10883873
aI10885176
aI10789355
aI10752279
aI10751999
aI10509725
aI10758452
aI10759157
aI10759503
aI10759505
aI10755707
aI10755504
aI10755670
aI10756959
aI10784795
aI10728398
aI10728394
aI10765839
aI10589439
aI10728523
aI10728633
aI10728614
aI10728602
aI10750042
aI10747816
aI10570956
aI10779579
aI10781995
aI10780275
aI10771406
aI10771664
aI10783584
aI10780667
aI10783789
aI10775703
aI10775349
aI10775234
aI10775223
aI10779257
aI10783447
aI10784183
aI10783834
aI10782238
aI10592119
aI10781002
aI10781296
aI10780616
aI10788232
aI10844906
aI10646187
aI10559439
aI10855886
aI10559440
aI10812035
aI10831286
aI10559442
aI10649252
aI10815164
aI10647130
aI10850063
aI10639197
aI10899593
aI10903097
aI10900201
aI10904057
aI10592626
aI10904213
aI10650687
aI10889065
aI10895404
aI10645122
aI10645111
aI10892563
aI10904404
aI10588138
aI10601008
aI10920534
aI10920535
aI10692211
aI10692741
aI10692759
aI10693891
aI10693715
aI10693911
aI10693898
aI10646477
aI10646442
aI10646481
aI10921171
aI10921085
aI10921306
aI10921340
aI10921684
aI10921664
aI10921655
aI10922011
aI10921759
aI10921713
aI10921802
aI10921623
aI10921608
aI10921574
aI10922111
aI10922079
aI10922064
aI10922057
aI10922055
aI10922133
aI10922164
aI10922180
aI10922163
aI10922127
aI10922320
aI10922280
aI10922278
aI10922249
aI10922248
aI10922222
aI10922366
aI10922363
aI10922441
aI10922391
aI10629152
aI10924183
aI10935775
aI10550365
aI10550364
aI10550363
aI10545157
aI10715747
aI10684741
aI10713204
aI10600865
aI10699451
aI10657335
aI10657340
aI10657336
aI10657333
aI10656255
aI10700226
aI10651384
aI10686248
aI10717642
aI10591755
aI10591731
aI10591089
aI10591146
aI10591149
aI10591180
aI10591181
aI10591182
aI10591184
aI10591185
aI10591186
aI10591121
aI10711781
aI10711816
aI10711749
aI10652857
aI10722769
aI10722213
aI10640465
aI10641954
aI10641959
aI10697876
aI10520383
aI10657511
aI10590706
aI10592787
aI10595852
aI10587024
aI10595135
aI10648849
aI10648850
aI10648852
aI10579336
aI10590060
aI10679217
aI10566883
aI10566878
aI10708892
aI10707554
aI10708100
aI10708819
aI10708102
aI10707731
aI10708251
aI10708124
aI10708011
aI10708131
aI10709100
aI10707807
aI10708047
aI10708640
aI10708641
aI10707809
aI10709205
aI10709104
aI10710109
aI10709331
aI10708767
aI10707952
aI10709221
aI10709210
aI10708987
aI10708871
aI10697326
aI10708760
aI10708761
aI10709323
aI10679112
aI10698888
aI10591201
aI10700452
aI10700406
aI10700476
aI10588161
aI10699003
aI10577668
aI10578097
aI10580015
aI10580020
aI10580972
aI10581434
aI10583885
aI10591502
aI10591649
aI10592789
aI10592990
aI10592999
aI10593089
aI10593090
aI10593350
aI10593718
aI10593786
aI10593850
aI10593907
aI10593911
aI10594000
aI10594012
aI10594194
aI10594195
aI10594197
aI10594198
aI10594227
aI10594228
aI10594229
aI10594230
aI10594257
aI10594261
aI10594270
aI10594349
aI10594388
aI10594477
aI10594478
aI10594480
aI10594537
aI10595131
aI10595133
aI10595134
aI10595467
aI10595469
aI10595470
aI10595720
aI10595721
aI10595723
aI10595812
aI10595823
aI10596323
aI10596502
aI10597293
aI10597918
aI10597931
aI10598187
aI10605229
aI10606360
aI10629161
aI10752575
aI10629269
aI10633216
aI10634021
aI10634186
aI10634258
aI10635888
aI10635944
aI10636116
aI10636450
aI10636558
aI10638274
aI10638280
aI10638371
aI10638411
aI10638419
aI10638509
aI10638868
aI10639452
aI10640545
aI10641711
aI10641935
aI10641994
aI10642440
aI10642726
aI10642727
aI10642728
aI10642737
aI10642932
aI10642933
aI10509597
aI10644627
aI10644840
aI10644975
aI10645091
aI10645641
aI10645666
aI10647626
aI10650363
aI10651698
aI10653131
aI10653133
aI10653134
aI10653135
aI10654562
aI10654876
aI10655134
aI10655286
aI10655332
aI10655367
aI10655423
aI10655466
aI10655534
aI10655537
aI10655723
aI10655773
aI10657417
aI10657427
aI10657473
aI10657496
aI10657683
aI10658383
aI10658391
aI10658414
aI10658714
aI10658742
aI10660686
aI10660688
aI10661234
aI10662420
aI10662533
aI10664225
aI10665013
aI10671186
aI10672387
aI10675892
aI10677338
aI10677340
aI10677354
aI10677358
aI10677380
aI10677395
aI10677400
aI10677411
aI10677435
aI10677446
aI10677448
aI10677476
aI10679617
aI10680071
aI10680167
aI10680172
aI10680182
aI10680189
aI10680194
aI10680196
aI10680201
aI10680208
aI10680211
aI10680212
aI10680216
aI10680217
aI10680218
aI10680220
aI10680221
aI10680224
aI10681011
aI10681559
aI10681569
aI10681587
aI10681707
aI10682340
aI10682607
aI10682688
aI10683912
aI10686037
aI10686038
aI10686040
aI10686042
aI10686045
aI10686047
aI10686048
aI10686049
aI10686051
aI10686860
aI10686961
aI10686969
aI10687179
aI10687227
aI10687298
aI10690028
aI10692084
aI10692266
aI10692269
aI10692270
aI10692272
aI10692274
aI10692538
aI10692603
aI10692668
aI10692717
aI10692809
aI10692815
aI10692820
aI10692823
aI10692829
aI10692882
aI10692985
aI10693699
aI10693893
aI10693895
aI10693896
aI10693897
aI10693899
aI10693901
aI10693903
aI10693904
aI10694160
aI10694169
aI10694225
aI10694226
aI10694228
aI10694229
aI10694230
aI10694240
aI10694241
aI10694244
aI10694245
aI10694253
aI10709661
aI10698274
aI10699810
aI10699806
aI10699539
aI10699205
aI10700072
aI10700069
aI10700078
aI10700071
aI10700085
aI10699446
aI10700075
aI10699439
aI10699226
aI10699192
aI10699213
aI10699991
aI10699993
aI10699899
aI10699897
aI10699823
aI10699900
aI10699856
aI10699851
aI10699873
aI10699910
aI10699974
aI10699955
aI10699929
aI10699847
aI10699969
aI10699826
aI10699956
aI10699938
aI10699801
aI10699807
aI10699942
aI10699905
aI10699456
aI10699431
aI10699457
aI10699428
aI10699381
aI10699374
aI10699211
aI10699895
aI10699928
aI10699229
aI10699191
aI10699849
aI10700001
aI10699983
aI10699988
aI10699896
aI10699962
aI10699919
aI10699862
aI10699923
aI10699791
aI10699800
aI10699792
aI10699440
aI10699378
aI10699186
aI10699975
aI10699930
aI10699935
aI10699190
aI10699865
aI10700042
aI10699972
aI10699968
aI10699941
aI10699066
aI10700083
aI10700084
aI10699160
aI10700079
aI10700068
aI10699913
aI10699966
aI10710165
aI10929135
aI10577406
aI10594052
aI10606109
aI10638878
aI10640551
aI10640586
aI10644972
aI10657476
aI10657489
aI10657684
aI10682969
aI10687368
aI10687414
aI10699838
aI10699844
aI10699541
aI10699946
aI10699808
aI10699201
aI10699178
aI10699822
aI10699866
aI10699819
aI10699901
aI10699939
aI10699538
aI10699967
aI10699836
aI10699198
aI10700080
aI10699028
aI10699041
aI10699032
aI10709838
aI10951476
aI10699748
aI10699746
aI10699744
aI10700123
aI10700120
aI10700117
aI10700118
aI10700115
aI10700122
aI10706972
aI10698880
aI10698881
aI10951633
aI10951341
aI10699357
aI10696576
aI10696590
aI10696591
aI10697476
aI10696593
aI10696588
aI10696564
aI10697624
aI10697643
aI10952308
aI10952304
aI10697199
aI10952399
aI10952453
aI10952454
aI10700688
aI10557161
aI10950088
aI10581714
aI10581719
aI10581720
aI10581790
aI10581793
aI10690717
aI10665605
aI10691471
aI10653037
aI10665607
aI10653035
aI10691469
aI10723391
aI10723537
aI10723751
aI10723948
aI10654922
aI10691389
aI10579368
aI10723001
aI10724522
aI10726466
aI10600660
aI10709631
aI10698993
aI10732584
aI10732619
aI10732621
aI10731047
aI10731051
aI10732976
aI10734506
aI10744850
aI10744095
aI10748201
aI10740684
aI10750174
aI10732314
aI10742901
aI10742948
aI10739592
aI10740143
aI10744762
aI10736742
aI10742666
aI10740622
aI10740571
aI10747836
aI10747617
aI10730860
aI10749616
aI10745660
aI10742448
aI10742446
aI10751014
aI10746955
aI10750139
aI10750138
aI10750951
aI10747720
aI10747400
aI10747387
aI10738544
aI10738593
aI10730992
aI10757888
aI10757890
aI10757745
aI10757582
aI10757541
aI10757661
aI10758305
aI10758992
aI10759941
aI10759380
aI10755194
aI10755230
aI10756544
aI10753597
aI10753636
aI10754845
aI10753471
aI10753886
aI10753708
aI10761870
aI10763581
aI10763182
aI10760772
aI10760104
aI10763786
aI10762110
aI10764353
aI10764418
aI10761584
aI10764690
aI10763017
aI10788157
aI10788212
aI10788150
aI10788220
aI10787968
aI10788044
aI10788119
aI10788056
aI10788050
aI10788107
aI10788104
aI10787985
aI10788182
aI10788141
aI10788071
aI10788129
aI10788080
aI10788061
aI10788067
aI10788053
aI10788074
aI10788135
aI10788138
aI10788092
aI10788077
aI10788126
aI10788047
aI10788089
aI10788110
aI10788095
aI10788064
aI10788101
aI10788116
aI10788113
aI10788086
aI10788122
aI10788132
aI10788098
aI10788083
aI10788145
aI10788153
aI10787976
aI10788194
aI10787964
aI10787979
aI10788010
aI10787995
aI10787999
aI10788004
aI10788224
aI10788172
aI10788197
aI10788191
aI10787971
aI10787988
aI10788208
aI10788188
aI10788185
aI10788200
aI10787982
aI10788178
aI10788203
aI10788166
aI10788163
aI10788169
aI10788175
aI10788028
aI10788034
aI10788041
aI10788007
aI10787992
aI10788018
aI10788031
aI10788014
aI10788160
aI10788021
aI10788038
aI10788024
aI10787961
aI10788216
aI10767699
aI10767709
aI10767717
aI10767706
aI10767720
aI10767714
aI10767729
aI10767723
aI10767726
aI10767734
aI10767737
aI10767762
aI10767747
aI10767751
aI10767741
aI10767754
aI10767757
aI10767785
aI10767773
aI10767780
aI10767766
aI10767769
aI10767776
aI10767797
aI10767806
aI10767803
aI10768149
aI10768140
aI10768143
aI10768160
aI10768146
aI10768156
aI10768164
aI10768184
aI10768181
aI10768134
aI10768282
aI10768042
aI10767977
aI10768031
aI10768014
aI10768125
aI10768067
aI10768112
aI10768070
aI10767984
aI10768048
aI10767963
aI10767991
aI10768119
aI10768037
aI10768034
aI10767970
aI10768057
aI10768116
aI10768017
aI10768007
aI10767960
aI10767952
aI10767974
aI10768022
aI10767947
aI10768011
aI10767955
aI10768025
aI10768077
aI10768098
aI10768084
aI10768091
aI10768102
aI10767943
aI10767996
aI10767967
aI10768122
aI10768051
aI10768128
aI10768108
aI10767980
aI10768087
aI10768000
aI10768105
aI10768299
aI10768302
aI10768368
aI10768365
aI10768362
aI10768359
aI10768213
aI10768225
aI10768231
aI10768254
aI10768243
aI10768262
aI10768250
aI10768247
aI10768294
aI10768291
aI10768286
aI10767840
aI10767877
aI10767898
aI10767862
aI10767916
aI10767874
aI10767868
aI10767910
aI10767920
aI10767923
aI10767933
aI10767907
aI10767856
aI10767827
aI10767815
aI10767850
aI10767834
aI10767903
aI10767824
aI10767853
aI10767837
aI10767831
aI10767846
aI10767843
aI10767927
aI10767893
aI10767890
aI10767883
aI10767886
aI10767859
aI10767930
aI10767939
aI10767821
aI10767818
aI10767936
aI10768273
aI10768277
aI10768190
aI10768197
aI10768194
aI10768204
aI10768219
aI10768222
aI10768216
aI10768374
aI10768330
aI10768326
aI10768343
aI10768348
aI10768323
aI10768338
aI10768335
aI10768207
aI10768311
aI10768381
aI10768378
aI10768395
aI10768385
aI10768269
aI10768391
aI10768398
aI10769992
aI10770013
aI10770022
aI10770025
aI10770067
aI10769952
aI10770074
aI10770000
aI10769976
aI10769962
aI10769972
aI10769969
aI10770052
aI10770096
aI10770099
aI10770055
aI10770090
aI10770084
aI10770040
aI10770048
aI10770113
aI10775241
aI10775238
aI10782177
aI10775665
aI10775661
aI10775677
aI10775668
aI10775671
aI10775674
aI10775681
aI10775657
aI10766181
aI10775654
aI10775032
aI10775001
aI10775071
aI10775038
aI10774998
aI10775056
aI10775012
aI10775096
aI10775041
aI10775045
aI10775088
aI10775068
aI10775077
aI10775081
aI10775029
aI10775008
aI10778560
aI10778563
aI10778556
aI10775257
aI10775281
aI10775292
aI10775297
aI10775254
aI10775261
aI10775278
aI10775271
aI10775275
aI10775265
aI10775249
aI10775244
aI10775284
aI10775300
aI10773652
aI10773479
aI10773493
aI10773558
aI10773537
aI10773540
aI10773681
aI10773692
aI10773675
aI10773482
aI10773486
aI10773544
aI10773670
aI10773648
aI10773645
aI10773656
aI10773550
aI10773466
aI10773458
aI10773527
aI10773469
aI10773476
aI10773472
aI10773505
aI10773714
aI10773587
aI10773634
aI10773612
aI10773598
aI10773581
aI10773663
aI10773631
aI10773508
aI10773513
aI10773522
aI10773577
aI10773553
aI10773625
aI10773628
aI10773615
aI10773720
aI10773607
aI10773705
aI10773603
aI10773689
aI10773685
aI10773639
aI10773461
aI10773697
aI10773571
aI10773595
aI10773531
aI10773517
aI10773564
aI10773568
aI10773590
aI10773496
aI10773489
aI10773499
aI10773708
aI10773723
aI10773642
aI10773622
aI10773700
aI10783532
aI10783506
aI10783528
aI10783501
aI10783518
aI10783486
aI10783524
aI10783491
aI10783495
aI10783521
aI10783512
aI10783535
aI10781514
aI10781511
aI10779003
aI10779006
aI10779014
aI10779010
aI10779017
aI10783703
aI10775507
aI10775473
aI10775549
aI10775539
aI10775487
aI10775535
aI10775531
aI10775518
aI10775504
aI10775525
aI10775493
aI10775490
aI10775521
aI10775510
aI10775468
aI10775545
aI10775557
aI10775514
aI10775501
aI10775484
aI10775542
aI10775528
aI10775481
aI10775476
aI10775309
aI10775305
aI10783731
aI10782226
aI10781243
aI10781307
aI10781304
aI10781297
aI10775350
aI10775353
aI10779828
aI10779825
aI10779802
aI10779834
aI10779831
aI10779839
aI10779822
aI10779799
aI10776610
aI10776582
aI10776588
aI10767358
aI10776614
aI10767363
aI10767372
aI10776602
aI10767368
aI10776585
aI10776592
aI10776627
aI10778549
aI10778553
aI10775401
aI10775381
aI10775384
aI10775454
aI10775387
aI10775426
aI10775378
aI10775437
aI10775416
aI10775407
aI10775419
aI10775432
aI10775404
aI10775457
aI10775423
aI10775395
aI10775445
aI10775410
aI10775391
aI10776291
aI10776280
aI10776294
aI10777587
aI10777635
aI10777584
aI10777653
aI10777638
aI10777591
aI10777650
aI10777656
aI10777644
aI10777604
aI10777600
aI10777597
aI10777576
aI10777608
aI10777570
aI10777631
aI10777666
aI10777659
aI10777613
aI10777618
aI10777621
aI10777580
aI10777628
aI10777662
aI10777647
aI10776969
aI10776977
aI10776989
aI10777021
aI10777002
aI10776998
aI10776980
aI10776966
aI10779734
aI10779737
aI10784406
aI10777314
aI10777311
aI10777308
aI10777285
aI10777296
aI10777438
aI10777416
aI10777261
aI10777322
aI10777301
aI10777289
aI10777350
aI10777251
aI10777413
aI10777399
aI10777394
aI10777391
aI10777405
aI10777278
aI10777347
aI10777282
aI10777423
aI10777368
aI10777435
aI10777388
aI10777382
aI10777429
aI10777248
aI10777420
aI10777344
aI10777335
aI10777332
aI10777329
aI10777357
aI10777361
aI10777304
aI10777353
aI10777385
aI10777338
aI10777372
aI10777255
aI10777377
aI10780623
aI10780620
aI10780626
aI10780617
aI10780832
aI10779391
aI10779437
aI10779372
aI10779348
aI10779401
aI10779369
aI10779396
aI10779384
aI10779358
aI10779449
aI10779423
aI10779428
aI10779419
aI10779446
aI10779434
aI10779412
aI10779352
aI10779416
aI10779355
aI10779440
aI10766202
aI10782895
aI10782898
aI10774724
aI10774853
aI10774692
aI10774689
aI10774671
aI10774698
aI10774761
aI10774665
aI10774827
aI10774803
aI10774684
aI10774823
aI10774775
aI10774766
aI10774677
aI10774728
aI10774674
aI10774820
aI10774809
aI10774668
aI10774721
aI10774836
aI10774660
aI10774817
aI10774733
aI10774680
aI10774812
aI10774806
aI10774718
aI10774793
aI10774840
aI10774856
aI10774833
aI10774782
aI10774830
aI10774849
aI10774749
aI10774743
aI10774758
aI10774740
aI10774770
aI10774755
aI10774752
aI10774711
aI10774707
aI10774701
aI10774843
aI10774797
aI10774846
aI10774695
aI10774704
aI10774654
aI10774657
aI10774790
aI10774778
aI10774785
aI10780490
aI10780478
aI10780487
aI10780453
aI10780474
aI10780466
aI10780494
aI10780469
aI10780512
aI10780504
aI10780509
aI10780481
aI10780463
aI10780456
aI10780459
aI10780501
aI10780498
aI10776340
aI10776364
aI10776327
aI10776312
aI10776347
aI10776356
aI10776353
aI10776309
aI10776315
aI10776360
aI10776344
aI10776336
aI10784729
aI10777801
aI10777779
aI10777804
aI10777810
aI10777841
aI10777775
aI10777741
aI10777798
aI10777789
aI10777822
aI10777737
aI10777783
aI10777880
aI10777748
aI10777859
aI10777901
aI10777884
aI10777716
aI10777815
aI10777960
aI10777831
aI10777826
aI10777853
aI10777846
aI10777849
aI10777910
aI10777720
aI10777727
aI10777793
aI10777896
aI10777712
aI10777706
aI10777770
aI10777951
aI10774964
aI10774945
aI10774967
aI10774939
aI10774951
aI10774974
aI10774942
aI10774978
aI10774929
aI10781581
aI10779888
aI10779891
aI10779857
aI10779852
aI10779882
aI10779920
aI10779937
aI10779895
aI10779924
aI10779875
aI10779902
aI10779849
aI10779930
aI10766221
aI10779911
aI10779917
aI10779908
aI10779860
aI10779868
aI10779872
aI10779843
aI10779864
aI10779933
aI10775705
aI10780824
aI10784185
aI10784189
aI10777474
aI10777464
aI10777478
aI10777486
aI10777467
aI10777495
aI10777470
aI10766196
aI10777459
aI10777492
aI10779298
aI10779344
aI10779308
aI10779317
aI10779333
aI10779311
aI10779314
aI10779295
aI10779329
aI10779303
aI10780160
aI10780166
aI10780163
aI10768662
aI10768683
aI10768633
aI10768614
aI10768665
aI10768901
aI10768643
aI10768637
aI10768576
aI10768483
aI10768595
aI10768782
aI10768541
aI10768867
aI10768850
aI10768677
aI10768828
aI10768816
aI10768433
aI10768549
aI10768791
aI10768640
aI10768562
aI10768603
aI10768722
aI10768606
aI10768598
aI10768620
aI10768626
aI10768735
aI10768835
aI10768429
aI10768686
aI10768422
aI10768406
aI10768680
aI10766008
aI10768694
aI10768700
aI10768668
aI10768706
aI10768672
aI10768703
aI10768450
aI10768552
aI10768538
aI10768528
aI10768713
aI10768856
aI10768870
aI10768556
aI10768656
aI10768853
aI10768897
aI10766004
aI10768531
aI10768648
aI10768455
aI10768469
aI10768447
aI10768610
aI10768843
aI10768494
aI10768502
aI10768894
aI10768838
aI10768524
aI10768905
aI10768909
aI10768802
aI10768719
aI10768440
aI10768882
aI10768873
aI10768497
aI10768710
aI10768878
aI10768472
aI10768425
aI10768587
aI10768623
aI10768891
aI10768832
aI10768443
aI10768731
aI10768745
aI10768846
aI10768742
aI10768475
aI10768436
aI10766014
aI10768765
aI10768582
aI10768479
aI10768861
aI10768570
aI10768750
aI10768411
aI10768728
aI10768463
aI10768458
aI10768822
aI10768651
aI10768630
aI10768466
aI10768545
aI10768535
aI10768796
aI10768725
aI10768517
aI10768617
aI10768768
aI10768888
aI10768754
aI10781557
aI10781554
aI10781560
aI10781571
aI10781574
aI10781544
aI10781541
aI10781568
aI10781564
aI10781531
aI10781578
aI10781550
aI10781527
aI10781535
aI10781538
aI10781547
aI10779228
aI10779231
aI10779225
aI10779235
aI10784415
aI10782342
aI10782345
aI10782349
aI10774457
aI10774420
aI10774429
aI10774450
aI10774462
aI10774465
aI10774426
aI10774435
aI10774423
aI10774447
aI10774417
aI10783681
aI10777025
aI10780293
aI10780290
aI10780301
aI10780284
aI10780287
aI10780296
aI10780304
aI10777447
aI10777455
aI10779761
aI10779201
aI10779204
aI10779208
aI10779198
aI10783049
aI10783052
aI10783060
aI10783057
aI10783045
aI10779747
aI10779977
aI10775365
aI10775329
aI10775323
aI10775334
aI10775337
aI10775344
aI10775320
aI10782754
aI10780945
aI10780952
aI10780927
aI10780965
aI10780948
aI10780960
aI10780933
aI10780930
aI10780969
aI10767419
aI10780564
aI10780560
aI10780579
aI10780576
aI10780605
aI10780550
aI10780547
aI10780554
aI10780591
aI10780609
aI10780568
aI10780582
aI10780612
aI10780595
aI10780529
aI10780526
aI10776254
aI10774876
aI10774887
aI10774884
aI10774868
aI10774904
aI10774872
aI10774909
aI10774923
aI10774916
aI10774891
aI10774861
aI10774919
aI10774898
aI10774895
aI10774913
aI10766075
aI10775215
aI10776770
aI10776726
aI10776795
aI10776779
aI10776783
aI10776775
aI10776760
aI10776826
aI10776799
aI10776823
aI10776757
aI10776729
aI10776806
aI10776817
aI10776748
aI10776811
aI10776790
aI10776839
aI10776834
aI10776734
aI10776744
aI10776766
aI10776829
aI10784572
aI10781496
aI10776634
aI10767354
aI10776631
aI10776638
aI10778937
aI10781838
aI10781834
aI10778427
aI10778434
aI10778440
aI10778437
aI10778444
aI10778430
aI10778455
aI10778452
aI10783763
aI10779278
aI10779588
aI10779528
aI10779621
aI10779576
aI10779492
aI10779652
aI10779477
aI10779649
aI10779643
aI10779517
aI10779522
aI10779544
aI10779495
aI10779615
aI10779612
aI10779563
aI10779571
aI10779552
aI10779525
aI10779541
aI10779624
aI10779646
aI10779480
aI10779509
aI10779548
aI10779474
aI10779557
aI10779535
aI10779628
aI10779602
aI10779584
aI10779618
aI10779568
aI10779631
aI10779488
aI10779598
aI10779483
aI10773179
aI10773210
aI10773233
aI10773190
aI10773207
aI10773267
aI10773241
aI10773280
aI10773200
aI10773197
aI10773263
aI10773257
aI10773248
aI10773171
aI10773157
aI10773174
aI10773187
aI10773164
aI10773167
aI10773194
aI10773214
aI10773275
aI10773137
aI10773260
aI10773222
aI10773148
aI10773141
aI10773151
aI10773160
aI10773252
aI10773144
aI10773272
aI10773283
aI10773236
aI10784508
aI10784237
aI10784240
aI10781499
aI10781617
aI10784672
aI10784427
aI10776919
aI10776909
aI10776906
aI10776950
aI10776929
aI10776939
aI10776916
aI10776913
aI10776880
aI10766209
aI10776947
aI10776894
aI10780446
aI10777987
aI10777990
aI10777993
aI10777983
aI10782427
aI10779990
aI10779987
aI10779996
aI10779993
aI10784151
aI10782338
aI10767490
aI10767493
aI10767487
aI10767496
aI10767484
aI10766533
aI10766566
aI10766599
aI10766793
aI10766524
aI10766776
aI10766745
aI10766782
aI10766806
aI10766779
aI10766704
aI10766714
aI10766742
aI10766633
aI10766844
aI10766250
aI10766676
aI10766701
aI10766604
aI10766490
aI10766475
aI10766649
aI10766960
aI10766913
aI10766824
aI10766255
aI10766562
aI10766988
aI10766238
aI10766401
aI10766838
aI10766739
aI10766679
aI10766404
aI10766964
aI10766636
aI10766385
aI10767030
aI10766885
aI10766656
aI10766609
aI10766630
aI10766618
aI10766615
aI10766694
aI10766536
aI10766502
aI10766771
aI10766812
aI10766763
aI10766760
aI10766586
aI10766802
aI10766724
aI10766753
aI10766736
aI10766640
aI10767021
aI10766893
aI10766274
aI10766621
aI10766711
aI10766643
aI10766901
aI10766904
aI10766799
aI10766612
aI10766593
aI10767017
aI10766277
aI10767055
aI10767058
aI10767003
aI10767096
aI10767010
aI10767084
aI10767071
aI10767081
aI10767044
aI10767090
aI10766687
aI10766698
aI10767024
aI10767027
aI10766660
aI10766653
aI10766898
aI10766730
aI10767035
aI10766733
aI10766663
aI10766673
aI10766646
aI10766690
aI10766627
aI10766669
aI10766440
aI10766389
aI10767052
aI10767078
aI10767067
aI10767040
aI10766456
aI10766360
aI10766348
aI10766363
aI10766357
aI10766465
aI10766550
aI10766553
aI10766583
aI10766580
aI10766556
aI10766570
aI10766530
aI10766577
aI10766487
aI10766541
aI10766407
aI10766471
aI10766547
aI10766354
aI10766410
aI10766338
aI10766341
aI10766544
aI10766559
aI10766999
aI10766366
aI10766499
aI10766394
aI10766481
aI10766496
aI10766513
aI10766478
aI10766345
aI10766928
aI10766907
aI10766877
aI10766889
aI10766856
aI10766590
aI10766707
aI10766516
aI10766596
aI10766484
aI10766727
aI10766428
aI10766720
aI10766283
aI10766506
aI10766520
aI10766423
aI10766527
aI10766624
aI10766666
aI10766789
aI10766940
aI10766943
aI10766767
aI10766749
aI10766756
aI10766796
aI10766935
aI10766995
aI10766300
aI10766323
aI10766979
aI10766786
aI10766280
aI10766374
aI10766982
aI10766951
aI10766351
aI10766861
aI10766263
aI10766815
aI10766821
aI10766932
aI10766259
aI10767061
aI10766835
aI10766828
aI10766317
aI10766864
aI10766916
aI10766446
aI10766437
aI10766413
aI10766453
aI10766923
aI10766416
aI10766919
aI10766468
aI10766431
aI10766287
aI10766948
aI10766335
aI10766332
aI10766326
aI10766320
aI10766296
aI10766956
aI10766293
aI10766971
aI10766290
aI10766870
aI10766967
aI10766450
aI10766873
aI10766867
aI10766974
aI10766831
aI10766853
aI10766910
aI10766443
aI10766419
aI10766459
aI10766462
aI10766850
aI10766314
aI10766369
aI10766329
aI10766303
aI10766434
aI10766717
aI10766379
aI10769031
aI10769008
aI10769046
aI10769022
aI10768939
aI10768936
aI10768981
aI10769118
aI10767690
aI10769071
aI10769040
aI10769130
aI10769150
aI10769142
aI10769011
aI10768977
aI10769016
aI10769104
aI10769037
aI10768918
aI10768926
aI10768955
aI10768994
aI10768948
aI10768945
aI10769000
aI10769066
aI10769107
aI10769094
aI10769043
aI10769003
aI10769099
aI10768958
aI10769127
aI10769147
aI10768942
aI10769019
aI10769136
aI10768970
aI10769034
aI10769111
aI10769133
aI10769139
aI10768929
aI10768914
aI10769062
aI10769027
aI10768990
aI10768951
aI10768974
aI10769088
aI10769056
aI10768984
aI10769074
aI10769123
aI10780357
aI10780395
aI10780367
aI10780353
aI10780377
aI10780350
aI10780374
aI10780385
aI10780389
aI10780363
aI10780405
aI10780410
aI10767559
aI10767562
aI10767556
aI10767550
aI10782431
aI10776273
aI10776266
aI10776270
aI10776512
aI10776509
aI10783643
aI10783647
aI10783794
aI10783790
aI10782916
aI10782920
aI10780008
aI10780029
aI10780012
aI10780004
aI10780054
aI10780032
aI10780026
aI10780023
aI10780061
aI10780036
aI10782303
aI10782299
aI10781763
aI10781758
aI10781818
aI10781778
aI10781825
aI10781828
aI10781800
aI10781803
aI10781772
aI10781786
aI10781783
aI10781806
aI10781809
aI10781812
aI10781792
aI10781789
aI10781775
aI10781768
aI10781796
aI10766161
aI10766131
aI10766153
aI10766119
aI10766128
aI10766139
aI10766097
aI10766103
aI10766174
aI10766107
aI10766164
aI10766092
aI10766122
aI10766156
aI10766148
aI10766171
aI10766145
aI10784591
aI10778349
aI10778344
aI10778369
aI10778382
aI10778378
aI10778372
aI10778354
aI10778365
aI10784873
aI10782107
aI10777030
aI10777081
aI10777035
aI10777059
aI10777062
aI10777085
aI10777042
aI10777073
aI10777049
aI10777097
aI10777090
aI10777069
aI10777076
aI10777053
aI10777045
aI10777039
aI10777094
aI10779023
aI10779965
aI10779968
aI10776860
aI10776843
aI10776863
aI10776857
aI10776853
aI10773124
aI10773100
aI10773108
aI10773104
aI10773092
aI10773095
aI10773115
aI10773112
aI10773085
aI10773118
aI10784612
aI10769410
aI10769425
aI10769437
aI10769448
aI10769441
aI10769414
aI10769418
aI10769455
aI10776368
aI10776373
aI10767218
aI10781403
aI10779269
aI10779275
aI10779272
aI10779266
aI10781198
aI10776199
aI10776246
aI10776235
aI10776226
aI10776250
aI10776216
aI10776196
aI10776239
aI10776174
aI10776242
aI10776220
aI10776209
aI10776181
aI10776212
aI10776177
aI10776185
aI10776188
aI10776192
aI10776204
aI10776223
aI10770190
aI10781493
aI10781487
aI10781490
aI10778271
aI10778301
aI10778294
aI10778284
aI10778280
aI10778268
aI10778265
aI10778290
aI10778297
aI10778276
aI10778306
aI10774191
aI10774187
aI10774184
aI10775356
aI10781074
aI10782127
aI10782139
aI10782130
aI10770172
aI10770168
aI10770137
aI10770175
aI10770164
aI10770131
aI10770120
aI10770160
aI10775714
aI10775711
aI10775719
aI10775730
aI10775723
aI10775726
aI10775733
aI10774639
aI10774643
aI10774632
aI10774647
aI10784704
aI10784701
aI10781169
aI10781166
aI10783401
aI10783407
aI10782148
aI10782160
aI10782152
aI10782163
aI10782172
aI10782166
aI10782157
aI10782169
aI10775914
aI10775855
aI10775849
aI10776090
aI10775938
aI10775929
aI10775955
aI10775824
aI10775926
aI10775883
aI10776040
aI10776047
aI10776024
aI10776028
aI10776077
aI10776053
aI10775875
aI10775880
aI10776066
aI10776062
aI10776056
aI10776070
aI10776031
aI10776074
aI10776059
aI10776159
aI10776018
aI10776163
aI10776087
aI10776093
aI10776096
aI10776105
aI10775833
aI10776166
aI10776044
aI10776021
aI10776138
aI10776101
aI10776112
aI10776156
aI10776109
aI10776116
aI10776035
aI10776152
aI10775862
aI10776013
aI10775991
aI10775980
aI10776001
aI10775858
aI10776005
aI10775983
aI10776008
aI10775852
aI10775994
aI10775997
aI10775976
aI10775943
aI10775965
aI10775971
aI10775987
aI10775950
aI10776145
aI10775910
aI10776119
aI10775904
aI10775839
aI10775843
aI10775891
aI10775868
aI10775932
aI10775920
aI10775894
aI10776129
aI10775899
aI10775962
aI10776126
aI10776123
aI10775968
aI10775827
aI10776142
aI10776149
aI10776135
aI10776132
aI10782268
aI10782261
aI10782279
aI10782275
aI10782271
aI10782265
aI10782282
aI10782291
aI10782288
aI10778505
aI10778487
aI10778472
aI10778466
aI10778512
aI10778495
aI10778491
aI10778519
aI10778516
aI10778523
aI10778484
aI10778481
aI10778502
aI10778499
aI10778527
aI10778530
aI10778461
aI10778508
aI10778476
aI10778535
aI10778542
aI10778545
aI10781464
aI10781927
aI10781947
aI10781971
aI10781979
aI10781982
aI10781956
aI10781916
aI10782005
aI10782002
aI10782013
aI10781933
aI10781975
aI10781961
aI10782019
aI10782024
aI10782009
aI10781985
aI10781968
aI10781964
aI10781988
aI10781952
aI10781930
aI10781920
aI10781936
aI10781923
aI10781943
aI10781998
aI10782016
aI10775691
aI10775694
aI10784615
aI10774621
aI10774624
aI10766081
aI10774627
aI10782408
aI10782397
aI10782402
aI10782405
aI10773403
aI10773430
aI10773427
aI10773414
aI10773437
aI10773418
aI10773434
aI10773446
aI10773408
aI10773449
aI10773452
aI10773411
aI10773421
aI10773398
aI10773440
aI10767394
aI10780315
aI10780312
aI10780785
aI10780789
aI10780801
aI10780809
aI10780778
aI10780793
aI10780798
aI10780812
aI10780805
aI10781268
aI10781286
aI10781265
aI10781290
aI10781278
aI10781275
aI10781283
aI10782836
aI10782813
aI10782819
aI10782810
aI10782816
aI10782832
aI10782803
aI10782842
aI10782827
aI10782847
aI10782850
aI10782800
aI10782822
aI10781114
aI10781110
aI10781123
aI10781117
aI10767238
aI10784596
aI10784600
aI10784603
aI10784229
aI10784226
aI10784218
aI10784221
aI10784214
aI10782324
aI10777500
aI10769677
aI10769476
aI10769768
aI10769560
aI10769600
aI10769481
aI10769517
aI10769735
aI10769571
aI10769807
aI10769751
aI10769789
aI10769804
aI10769782
aI10769668
aI10769597
aI10769567
aI10769574
aI10769545
aI10769745
aI10769700
aI10769528
aI10769741
aI10769605
aI10769514
aI10769532
aI10769583
aI10769541
aI10769729
aI10769500
aI10769630
aI10769691
aI10769625
aI10769495
aI10769577
aI10769462
aI10769672
aI10769589
aI10769761
aI10769458
aI10769758
aI10769754
aI10769646
aI10769707
aI10769765
aI10769801
aI10769813
aI10769694
aI10769820
aI10769557
aI10769621
aI10769551
aI10769586
aI10769797
aI10769564
aI10769637
aI10769618
aI10769535
aI10769506
aI10769688
aI10769724
aI10769817
aI10769651
aI10769488
aI10769718
aI10769657
aI10769778
aI10769614
aI10769704
aI10769634
aI10769661
aI10769721
aI10769511
aI10769484
aI10769503
aI10769654
aI10769609
aI10769522
aI10769681
aI10769786
aI10769810
aI10769792
aI10769775
aI10769936
aI10774548
aI10774555
aI10774497
aI10774598
aI10774538
aI10774614
aI10774468
aI10774542
aI10774518
aI10774506
aI10774500
aI10774571
aI10774533
aI10774509
aI10774512
aI10774608
aI10774490
aI10774545
aI10774472
aI10774592
aI10774503
aI10774524
aI10774563
aI10774559
aI10774552
aI10774581
aI10774578
aI10774611
aI10774486
aI10774604
aI10774493
aI10774585
aI10774475
aI10766020
aI10774479
aI10774482
aI10784287
aI10784283
aI10784434
aI10781665
aI10776406
aI10776377
aI10776385
aI10776397
aI10776410
aI10776400
aI10776388
aI10776391
aI10773295
aI10773292
aI10773289
aI10773286
aI10772134
aI10772146
aI10772649
aI10771393
aI10771379
aI10772587
aI10771736
aI10771780
aI10772569
aI10770968
aI10770945
aI10771220
aI10771397
aI10771578
aI10771508
aI10772118
aI10771858
aI10771875
aI10771641
aI10772630
aI10771375
aI10773060
aI10771683
aI10771166
aI10771028
aI10771126
aI10771530
aI10771079
aI10771811
aI10771716
aI10771416
aI10771226
aI10770914
aI10770749
aI10771883
aI10772192
aI10772911
aI10773042
aI10771192
aI10770867
aI10770574
aI10770255
aI10770526
aI10771493
aI10772985
aI10772004
aI10772327
aI10772907
aI10772916
aI10772341
aI10772250
aI10772059
aI10771565
aI10770804
aI10771141
aI10772353
aI10772542
aI10772891
aI10770490
aI10770962
aI10772582
aI10771117
aI10772898
aI10770819
aI10770816
aI10772679
aI10771163
aI10772958
aI10772894
aI10770737
aI10770779
aI10772000
aI10770842
aI10772492
aI10770561
aI10770340
aI10772930
aI10772461
aI10772683
aI10771208
aI10772388
aI10771421
aI10771410
aI10771181
aI10771321
aI10771370
aI10772975
aI10772153
aI10772046
aI10766055
aI10772318
aI10771488
aI10772138
aI10772707
aI10772996
aI10771768
aI10771086
aI10771355
aI10770899
aI10772027
aI10772805
aI10770630
aI10771829
aI10770762
aI10771345
aI10770533
aI10773009
aI10770547
aI10772432
aI10772745
aI10772019
aI10772609
aI10771846
aI10772833
aI10772270
aI10772845
aI10771479
aI10770812
aI10771499
aI10770807
aI10772991
aI10770396
aI10773051
aI10772315
aI10771450
aI10771068
aI10770539
aI10771909
aI10772408
aI10772369
aI10772309
aI10772324
aI10771315
aI10772612
aI10772980
aI10771482
aI10771865
aI10771742
aI10766048
aI10771447
aI10770417
aI10770327
aI10771633
aI10771668
aI10771473
aI10771730
aI10772436
aI10771622
aI10772888
aI10771627
aI10772380
aI10771106
aI10770435
aI10772871
aI10771616
aI10770506
aI10770502
aI10772624
aI10772349
aI10772653
aI10772815
aI10771786
aI10771842
aI10771957
aI10771929
aI10770717
aI10771880
aI10771932
aI10771972
aI10771901
aI10770891
aI10771765
aI10771751
aI10770928
aI10771338
aI10772740
aI10771608
aI10772827
aI10772926
aI10771989
aI10771912
aI10772812
aI10770536
aI10770474
aI10770990
aI10770975
aI10772858
aI10771586
aI10770896
aI10772470
aI10772066
aI10770266
aI10772637
aI10772377
aI10772292
aI10772762
aI10772031
aI10771020
aI10771808
aI10772417
aI10772577
aI10771603
aI10770691
aI10772236
aI10771692
aI10772690
aI10772174
aI10772508
aI10772079
aI10772788
aI10772756
aI10772646
aI10772127
aI10772299
aI10772156
aI10770634
aI10770711
aI10770361
aI10770902
aI10766036
aI10771048
aI10770948
aI10772296
aI10772280
aI10770247
aI10772199
aI10770925
aI10770724
aI10771171
aI10772102
aI10771862
aI10770786
aI10771365
aI10770759
aI10770281
aI10770740
aI10772429
aI10771979
aI10771442
aI10771101
aI10771520
aI10770861
aI10770870
aI10770275
aI10772454
aI10772861
aI10770823
aI10773028
aI10770262
aI10770243
aI10771966
aI10771947
aI10770792
aI10771403
aI10771695
aI10771745
aI10771851
aI10771872
aI10771723
aI10771151
aI10773047
aI10772658
aI10772451
aI10771591
aI10770295
aI10771825
aI10771760
aI10772223
aI10772259
aI10772092
aI10770431
aI10770701
aI10771557
aI10770285
aI10772209
aI10770290
aI10770591
aI10772830
aI10772095
aI10771854
aI10770570
aI10772666
aI10772780
aI10772882
aI10772012
aI10772444
aI10772621
aI10771230
aI10771362
aI10772184
aI10771287
aI10770874
aI10771328
aI10771290
aI10770838
aI10771147
aI10771654
aI10771304
aI10771331
aI10770509
aI10771073
aI10771241
aI10772159
aI10771248
aI10771237
aI10771091
aI10771267
aI10770789
aI10770730
aI10770852
aI10770783
aI10772481
aI10771263
aI10770577
aI10770619
aI10770610
aI10771476
aI10770587
aI10771003
aI10772771
aI10771709
aI10771464
aI10771560
aI10771438
aI10770995
aI10771523
aI10771065
aI10771435
aI10770667
aI10770864
aI10766043
aI10770695
aI10771644
aI10773068
aI10772049
aI10770480
aI10772933
aI10772073
aI10772796
aI10772076
aI10771212
aI10771545
aI10771427
aI10771712
aI10772398
aI10771976
aI10770388
aI10771950
aI10772022
aI10771943
aI10771801
aI10771334
aI10771661
aI10771178
aI10772499
aI10771672
aI10773063
aI10771432
aI10771157
aI10772714
aI10771187
aI10772337
aI10771868
aI10773075
aI10773006
aI10772099
aI10772305
aI10773031
aI10772412
aI10772334
aI10772007
aI10771790
aI10771702
aI10772867
aI10771255
aI10772643
aI10771202
aI10771600
aI10771281
aI10770495
aI10770441
aI10772751
aI10771008
aI10772940
aI10772627
aI10772759
aI10772748
aI10770551
aI10770520
aI10770321
aI10770918
aI10770826
aI10771349
aI10772823
aI10770498
aI10772203
aI10772686
aI10772465
aI10770369
aI10772808
aI10772122
aI10770351
aI10772254
aI10770743
aI10772522
aI10770484
aI10772374
aI10772563
aI10770597
aI10771056
aI10772107
aI10772473
aI10772573
aI10771137
aI10770404
aI10772851
aI10772530
aI10770554
aI10771284
aI10770661
aI10770879
aI10770754
aI10770639
aI10770768
aI10770656
aI10772876
aI10770673
aI10770309
aI10772195
aI10772055
aI10770676
aI10771251
aI10770454
aI10771318
aI10771388
aI10771819
aI10771915
aI10771923
aI10771986
aI10771814
aI10771013
aI10771273
aI10771123
aI10770951
aI10771112
aI10770911
aI10771595
aI10771575
aI10771637
aI10771650
aI10772946
aI10773071
aI10772606
aI10772556
aI10772696
aI10772504
aI10772478
aI10770517
aI10770460
aI10772039
aI10772793
aI10772063
aI10770374
aI10770393
aI10772321
aI10772285
aI10772181
aI10770845
aI10772512
aI10770705
aI10772784
aI10772034
aI10772592
aI10770774
aI10770650
aI10770605
aI10770932
aI10770557
aI10770600
aI10770623
aI10770529
aI10772424
aI10770428
aI10772227
aI10771960
aI10771953
aI10772016
aI10772969
aI10771258
aI10770523
aI10772855
aI10771822
aI10773037
aI10772966
aI10772533
aI10770958
aI10772233
aI10772170
aI10773024
aI10772700
aI10772671
aI10772901
aI10770324
aI10770377
aI10771083
aI10772288
aI10772240
aI10770849
aI10770270
aI10770887
aI10770345
aI10772598
aI10771679
aI10770643
aI10771109
aI10771040
aI10770998
aI10772729
aI10771504
aI10772719
aI10772693
aI10772999
aI10771175
aI10772488
aI10772595
aI10772663
aI10772676
aI10771244
aI10771485
aI10770941
aI10772262
aI10770708
aI10771892
aI10772177
aI10772274
aI10772042
aI10772142
aI10772244
aI10770698
aI10772549
aI10771898
aI10770614
aI10770626
aI10771537
aI10772212
aI10770680
aI10772560
aI10770801
aI10772405
aI10772277
aI10772726
aI10771550
aI10770937
aI10770795
aI10772085
aI10771533
aI10771568
aI10771233
aI10770305
aI10784895
aI10779218
aI10775161
aI10775134
aI10775182
aI10775212
aI10775190
aI10775149
aI10775145
aI10775193
aI10775187
aI10775203
aI10775200
aI10775156
aI10775153
aI10775167
aI10775172
aI10775164
aI10775126
aI10775137
aI10775131
aI10775121
aI10775118
aI10775115
aI10775141
aI10775179
aI10775206
aI10775209
aI10782937
aI10782942
aI10782932
aI10782926
aI10782929
aI10782954
aI10784013
aI10784016
aI10784020
aI10784025
aI10784028
aI10784006
aI10784009
aI10784000
aI10784003
aI10784137
aI10784134
aI10784131
aI10784163
aI10784170
aI10784166
aI10781662
aI10781656
aI10781650
aI10781659
aI10781653
aI10780071
aI10782071
aI10782058
aI10782081
aI10782055
aI10782084
aI10782087
aI10782074
aI10782067
aI10782042
aI10782045
aI10784918
aI10783476
aI10775591
aI10775595
aI10775640
aI10775626
aI10780132
aI10780082
aI10780121
aI10780145
aI10780151
aI10780139
aI10780116
aI10780136
aI10780109
aI10780129
aI10780085
aI10780142
aI10780126
aI10780089
aI10780278
aI10780179
aI10780272
aI10780246
aI10780255
aI10780197
aI10780229
aI10780200
aI10780225
aI10780269
aI10773303
aI10773361
aI10773345
aI10773348
aI10773324
aI10773336
aI10773314
aI10773389
aI10773309
aI10773376
aI10773393
aI10773327
aI10773340
aI10773351
aI10773368
aI10773385
aI10773298
aI10773311
aI10773330
aI10773321
aI10773317
aI10773333
aI10766192
aI10781644
aI10766187
aI10781639
aI10767666
aI10767378
aI10784449
aI10782619
aI10783917
aI10783912
aI10783920
aI10778408
aI10778390
aI10778400
aI10778415
aI10778411
aI10778418
aI10778396
aI10778422
aI10778404
aI10767151
aI10767117
aI10767120
aI10767157
aI10767154
aI10767148
aI10767110
aI10767107
aI10767102
aI10767140
aI10767123
aI10767160
aI10767136
aI10767113
aI10767126
aI10767130
aI10767144
aI10767163
aI10779112
aI10779099
aI10779129
aI10779115
aI10779089
aI10779180
aI10779053
aI10779170
aI10779035
aI10779057
aI10779162
aI10779152
aI10779083
aI10779032
aI10779038
aI10779149
aI10779092
aI10779106
aI10779050
aI10779177
aI10779183
aI10779145
aI10779186
aI10779174
aI10779029
aI10779041
aI10779138
aI10779135
aI10779141
aI10779119
aI10779125
aI10779079
aI10779075
aI10779069
aI10779072
aI10779193
aI10779045
aI10779065
aI10779190
aI10774233
aI10774227
aI10774199
aI10774196
aI10783363
aI10783358
aI10775748
aI10775796
aI10775738
aI10775760
aI10775772
aI10767293
aI10775784
aI10775751
aI10775793
aI10781591
aI10781587
aI10781598
aI10781610
aI10781606
aI10781034
aI10776530
aI10776539
aI10776554
aI10776521
aI10776543
aI10776546
aI10776525
aI10776536
aI10776557
aI10782774
aI10774161
aI10774158
aI10774164
aI10774172
aI10774141
aI10774168
aI10774147
aI10774155
aI10774144
aI10774176
aI10778955
aI10778987
aI10778974
aI10778970
aI10778966
aI10778984
aI10778959
aI10778993
aI10778944
aI10778963
aI10778998
aI10778980
aI10778977
aI10778952
aI10778947
aI10777123
aI10777117
aI10777107
aI10777112
aI10777120
aI10767313
aI10780664
aI10775220
aI10784800
aI10773783
aI10773925
aI10774076
aI10774091
aI10773878
aI10773864
aI10773873
aI10773899
aI10773916
aI10773893
aI10773896
aI10773949
aI10774053
aI10774001
aI10773959
aI10773963
aI10773968
aI10773735
aI10773998
aI10773939
aI10773786
aI10774050
aI10773729
aI10774079
aI10773973
aI10774020
aI10773799
aI10773976
aI10773881
aI10773995
aI10773991
aI10774004
aI10773835
aI10773760
aI10773867
aI10773953
aI10774064
aI10774058
aI10774103
aI10774116
aI10773906
aI10774068
aI10774098
aI10773740
aI10773921
aI10773773
aI10774032
aI10773934
aI10773756
aI10773854
aI10773831
aI10773778
aI10773768
aI10773903
aI10774085
aI10774134
aI10773821
aI10773791
aI10773846
aI10774017
aI10773983
aI10774112
aI10773732
aI10774094
aI10773988
aI10773825
aI10773807
aI10773810
aI10773841
aI10773817
aI10774127
aI10774124
aI10782730
aI10782733
aI10782727
aI10782736
aI10782739
aI10783817
aI10769365
aI10769374
aI10769381
aI10769310
aI10769245
aI10769253
aI10769330
aI10769403
aI10769188
aI10769285
aI10769335
aI10769327
aI10769354
aI10769389
aI10769281
aI10769298
aI10769182
aI10769265
aI10769271
aI10769166
aI10769232
aI10769197
aI10769257
aI10769371
aI10769320
aI10769307
aI10769316
aI10769313
aI10769368
aI10769339
aI10769185
aI10769209
aI10769177
aI10769201
aI10784903
aI10784618
aI10783784
aI10783368
aI10767404
aI10782785
aI10782788
aI10782782
aI10782188
aI10782195
aI10782183
aI10782191
aI10781087
aI10781092
aI10781081
aI10781078
aI10767416
aI10775651
aI10775648
aI10784120
aI10779453
aI10784754
aI10784750
aI10781441
aI10781436
aI10781426
aI10781450
aI10781429
aI10781453
aI10781460
aI10781447
aI10781444
aI10781432
aI10767598
aI10779680
aI10779700
aI10779671
aI10779677
aI10779719
aI10779716
aI10779722
aI10779687
aI10779690
aI10779694
aI10779697
aI10779668
aI10779710
aI10779703
aI10779713
aI10784973
aI10782718
aI10783963
aI10783959
aI10783968
aI10783953
aI10783441
aI10782660
aI10782666
aI10782663
aI10769925
aI10769896
aI10769845
aI10769928
aI10769918
aI10769877
aI10769915
aI10769881
aI10769838
aI10769857
aI10769841
aI10769863
aI10769854
aI10769827
aI10769830
aI10769909
aI10769912
aI10769902
aI10783877
aI10783880
aI10783884
aI10783874
aI10783887
aI10783868
aI10783871
aI10783865
aI10778238
aI10778246
aI10778262
aI10778249
aI10778241
aI10778232
aI10778259
aI10778254
aI10783174
aI10781474
aI10781483
aI10776682
aI10776672
aI10776669
aI10776687
aI10774317
aI10774269
aI10774339
aI10774265
aI10774281
aI10774274
aI10774278
aI10774291
aI10774296
aI10774261
aI10774287
aI10774326
aI10774320
aI10774311
aI10774299
aI10774303
aI10774250
aI10774258
aI10774329
aI10774253
aI10774314
aI10774333
aI10774336
aI10779251
aI10779246
aI10781213
aI10781222
aI10781205
aI10784437
aI10777558
aI10777564
aI10782333
aI10781691
aI10781734
aI10781749
aI10781745
aI10781742
aI10781698
aI10781724
aI10781672
aI10781713
aI10781706
aI10781676
aI10781727
aI10781685
aI10767339
aI10781739
aI10781730
aI10781695
aI10781720
aI10781679
aI10781625
aI10783750
aI10783756
aI10783753
aI10776562
aI10776456
aI10776479
aI10776421
aI10776461
aI10776500
aI10776488
aI10776418
aI10776473
aI10776503
aI10776491
aI10781233
aI10781236
aI10781225
aI10781228
aI10783312
aI10783327
aI10783319
aI10783323
aI10783331
aI10783316
aI10783338
aI10783335
aI10782866
aI10782853
aI10782863
aI10782860
aI10782857
aI10783444
aI10782110
aI10782114
aI10782117
aI10783108
aI10783115
aI10783112
aI10783093
aI10783084
aI10783081
aI10783100
aI10783097
aI10783103
aI10783087
aI10783090
aI10783075
aI10783078
aI10777683
aI10777675
aI10777671
aI10777692
aI10777689
aI10777686
aI10777679
aI10778745
aI10778690
aI10778601
aI10778729
aI10778738
aI10778710
aI10778654
aI10778725
aI10778754
aI10778732
aI10778572
aI10767321
aI10778609
aI10778830
aI10778797
aI10778588
aI10778697
aI10778585
aI10778625
aI10778758
aI10778810
aI10778577
aI10778618
aI10778787
aI10778778
aI10778751
aI10778813
aI10778721
aI10778774
aI10778770
aI10778628
aI10778686
aI10778666
aI10778807
aI10778605
aI10778823
aI10778766
aI10778748
aI10778761
aI10778680
aI10778646
aI10778568
aI10778718
aI10778592
aI10778621
aI10778800
aI10778597
aI10778580
aI10778784
aI10778816
aI10778794
aI10778819
aI10782213
aI10782216
aI10782203
aI10782207
aI10782219
aI10782210
aI10782629
aI10782639
aI10782635
aI10782645
aI10782622
aI10782642
aI10784852
aI10767681
aI10783570
aI10783559
aI10783576
aI10783562
aI10783541
aI10783554
aI10783551
aI10783566
aI10783573
aI10781131
aI10781128
aI10781135
aI10767431
aI10767425
aI10767434
aI10767437
aI10767451
aI10767448
aI10767441
aI10767444
aI10767428
aI10780646
aI10780643
aI10780629
aI10780653
aI10780656
aI10780637
aI10780633
aI10784201
aI10783684
aI10783688
aI10782385
aI10782372
aI10782369
aI10782357
aI10782382
aI10782366
aI10782362
aI10782379
aI10784072
aI10784076
aI10782462
aI10782465
aI10782441
aI10782444
aI10782453
aI10782472
aI10782476
aI10782469
aI10781841
aI10779727
aI10778123
aI10778212
aI10778023
aI10778148
aI10778026
aI10778016
aI10778101
aI10778044
aI10778093
aI10778201
aI10778105
aI10778138
aI10778130
aI10778050
aI10778115
aI10778096
aI10778182
aI10778187
aI10778151
aI10778164
aI10778204
aI10778177
aI10778019
aI10778006
aI10778161
aI10778170
aI10778000
aI10778060
aI10778145
aI10780888
aI10780901
aI10780913
aI10780919
aI10780897
aI10780905
aI10780916
aI10781629
aI10767397
aI10767400
aI10780155
aI10783384
aI10783381
aI10783823
aI10783803
aI10783809
aI10767334
aI10783806
aI10783813
aI10784113
aI10784116
aI10783588
aI10781202
aI10784144
aI10784317
aI10784308
aI10784301
aI10784311
aI10784314
aI10784331
aI10784325
aI10784321
aI10784305
aI10784328
aI10784498
aI10778225
aI10778219
aI10767510
aI10784127
aI10784124
aI10767576
aI10778926
aI10778920
aI10778929
aI10779770
aI10779774
aI10779777
aI10779783
aI10779766
aI10779788
aI10775461
aI10777133
aI10777214
aI10777234
aI10777211
aI10777230
aI10777181
aI10777173
aI10777162
aI10777149
aI10777185
aI10777221
aI10777208
aI10777225
aI10777137
aI10777205
aI10777190
aI10777218
aI10777168
aI10777197
aI10777243
aI10777194
aI10777201
aI10777127
aI10777165
aI10777153
aI10777240
aI10777237
aI10777177
aI10777141
aI10777130
aI10777144
aI10777157
aI10767462
aI10782028
aI10784659
aI10782692
aI10782695
aI10782680
aI10782688
aI10782700
aI10782703
aI10781147
aI10783842
aI10777549
aI10777536
aI10777539
aI10777530
aI10777546
aI10777555
aI10777533
aI10777543
aI10777552
aI10767413
aI10767409
aI10784796
aI10778330
aI10778337
aI10778327
aI10778333
aI10781023
aI10781016
aI10783066
aI10784495
aI10783037
aI10783034
aI10767480
aI10767474
aI10767477
aI10783671
aI10783668
aI10783665
aI10783674
aI10784691
aI10781317
aI10781310
aI10781314
aI10784711
aI10767350
aI10767455
aI10767458
aI10778868
aI10778844
aI10778838
aI10778879
aI10778910
aI10778916
aI10778898
aI10778895
aI10778906
aI10778854
aI10778847
aI10778864
aI10778851
aI10778901
aI10778892
aI10778841
aI10778889
aI10778834
aI10778885
aI10778875
aI10778857
aI10778872
aI10778913
aI10782608
aI10782612
aI10782605
aI10782615
aI10776699
aI10776695
aI10776703
aI10782317
aI10782313
aI10782310
aI10780420
aI10780433
aI10780423
aI10780440
aI10780427
aI10780430
aI10780696
aI10780686
aI10780690
aI10780683
aI10780693
aI10780669
aI10780673
aI10780705
aI10780676
aI10780701
aI10767466
aI10783435
aI10783376
aI10784514
aI10776663
aI10776666
aI10776653
aI10776659
aI10776646
aI10776642
aI10780867
aI10780864
aI10780870
aI10783928
aI10783925
aI10783937
aI10783931
aI10783934
aI10779792
aI10784042
aI10783482
aI10781249
aI10781252
aI10777507
aI10777504
aI10784195
aI10783697
aI10783738
aI10783735
aI10783742
aI10782122
aI10784033
aI10784680
aI10783909
aI10783855
aI10781632
aI10776568
aI10776571
aI10776574
aI10767580
aI10782500
aI10782494
aI10782497
aI10782491
aI10767595
aI10783471
aI10783468
aI10783462
aI10783459
aI10783465
aI10780984
aI10780988
aI10780978
aI10780991
aI10780994
aI10778932
aI10783013
aI10783009
aI10783006
aI10783030
aI10783023
aI10783017
aI10783020
aI10783026
aI10784278
aI10779659
aI10767571
aI10784629
aI10784098
aI10784095
aI10784090
aI10782098
aI10782092
aI10782095
aI10784296
aI10767514
aI10767542
aI10767532
aI10767519
aI10767523
aI10767535
aI10767526
aI10767529
aI10767539
aI10767545
aI10784083
aI10782909
aI10782912
aI10782906
aI10783349
aI10783342
aI10783346
aI10775105
aI10783662
aI10784049
aI10784819
aI10783592
aI10777526
aI10777522
aI10783835
aI10784760
aI10784683
aI10781399
aI10781390
aI10781394
aI10781383
aI10781387
aI10784341
aI10783163
aI10783971
aI10783977
aI10783974
aI10783981
aI10781352
aI10781333
aI10781370
aI10781367
aI10781357
aI10781349
aI10781340
aI10781321
aI10781337
aI10781330
aI10781325
aI10784644
aI10784832
aI10784559
aI10784556
aI10784563
aI10782538
aI10782559
aI10782563
aI10782576
aI10782534
aI10782519
aI10782516
aI10782579
aI10782554
aI10782585
aI10782572
aI10782544
aI10782541
aI10782551
aI10782548
aI10782523
aI10782527
aI10782568
aI10782530
aI10782588
aI10782582
aI10784440
aI10783620
aI10783838
aI10784266
aI10784273
aI10783580
aI10783302
aI10784374
aI10783042
aI10783120
aI10783144
aI10783128
aI10783133
aI10783155
aI10783139
aI10783124
aI10783148
aI10783151
aI10784686
aI10783411
aI10783420
aI10783417
aI10783429
aI10783414
aI10783424
aI10781855
aI10781874
aI10781848
aI10781886
aI10781883
aI10781889
aI10781861
aI10767329
aI10781877
aI10781880
aI10781893
aI10783893
aI10783890
aI10784739
aI10782103
aI10783355
aI10782250
aI10782247
aI10782257
aI10782241
aI10782254
aI10782244
aI10784881
aI10784878
aI10784385
aI10784379
aI10784389
aI10784395
aI10784398
aI10784392
aI10782751
aI10782748
aI10782743
aI10781262
aI10781192
aI10777968
aI10777965
aI10777971
aI10780720
aI10780713
aI10780716
aI10784068
aI10784065
aI10784924
aI10784812
aI10784815
aI10784900
aI10729127
aI10781376
aI10781379
aI10781373
aI10781467
aI10784930
aI10783831
aI10784933
aI10780756
aI10780759
aI10780762
aI10780765
aI10780731
aI10780768
aI10780725
aI10780772
aI10780753
aI10780735
aI10780750
aI10780745
aI10784402
aI10784338
aI10783305
aI10767629
aI10767632
aI10783769
aI10783766
aI10783398
aI10783393
aI10779467
aI10779470
aI10779461
aI10779458
aI10779464
aI10784480
aI10784483
aI10783388
aI10784764
aI10784210
aI10782038
aI10784655
aI10782878
aI10782874
aI10784911
aI10777514
aI10777517
aI10777511
aI10780972
aI10784232
aI10784723
aI10783988
aI10783985
aI10784782
aI10784779
aI10784785
aI10784652
aI10784355
aI10782713
aI10782710
aI10782034
aI10783677
aI10781901
aI10774392
aI10774356
aI10774353
aI10774345
aI10774407
aI10774371
aI10774368
aI10774350
aI10774359
aI10774398
aI10774380
aI10774365
aI10774377
aI10774374
aI10774362
aI10774383
aI10774401
aI10774413
aI10774395
aI10774404
aI10774387
aI10774342
aI10780852
aI10780858
aI10780855
aI10779962
aI10779956
aI10779959
aI10780844
aI10781156
aI10781159
aI10784157
aI10784160
aI10784140
aI10781055
aI10781065
aI10781058
aI10780001
aI10781621
aI10777997
aI10779944
aI10779941
aI10784576
aI10784463
aI10784466
aI10784054
aI10784060
aI10784057
aI10784511
aI10784453
aI10782653
aI10784860
aI10784668
aI10774239
aI10782142
aI10780877
aI10781421
aI10781409
aI10781412
aI10781418
aI10784445
aI10783776
aI10780523
aI10782232
aI10782229
aI10783997
aI10780519
aI10780516
aI10784735
aI10784870
aI10783629
aI10783626
aI10783773
aI10784921
aI10784488
aI10784476
aI10784473
aI10780532
aI10780535
aI10783193
aI10783269
aI10783245
aI10783204
aI10783238
aI10783265
aI10783282
aI10783254
aI10783180
aI10783242
aI10783219
aI10783235
aI10783278
aI10783251
aI10783272
aI10783208
aI10783224
aI10783257
aI10783248
aI10783232
aI10783187
aI10783262
aI10783184
aI10783228
aI10782982
aI10782991
aI10782968
aI10782988
aI10782979
aI10782985
aI10782996
aI10782976
aI10784626
aI10784370
aI10784363
aI10784366
aI10775809
aI10775819
aI10775806
aI10775812
aI10775815
aI10775803
aI10784885
aI10784867
aI10783858
aI10783861
aI10784864
aI10784962
aI10784770
aI10784608
aI10784958
aI10783897
aI10783904
aI10784502
aI10784037
aI10781502
aI10783585
aI10783451
aI10784550
aI10784970
aI10767212
aI10767197
aI10767209
aI10767193
aI10767203
aI10767206
aI10767200
aI10783991
aI10784719
aI10784469
aI10784663
aI10784345
aI10781507
aI10767587
aI10784104
aI10767603
aI10767607
aI10767611
aI10784526
aI10784633
aI10784835
aI10784636
aI10767176
aI10767173
aI10767169
aI10767179
aI10767182
aI10767187
aI10779282
aI10780708
aI10784648
aI10781104
aI10767258
aI10784747
aI10784840
aI10784889
aI10784892
aI10784518
aI10784948
aI10783759
aI10783605
aI10782354
aI10784855
aI10767647
aI10783634
aI10784806
aI10784823
aI10784846
aI10784776
aI10784951
aI10784827
aI10784534
aI10784976
aI10785075
aI10785083
aI10785071
aI10785068
aI10785079
aI10785111
aI10785092
aI10785089
aI10785060
aI10785107
aI10785035
aI10785039
aI10785042
aI10784996
aI10785024
aI10785048
aI10784992
aI10785005
aI10785027
aI10785000
aI10785021
aI10784989
aI10784984
aI10785018
aI10785032
aI10784981
aI10785053
aI10767273
aI10785101
aI10785098
aI10785114
aI10785260
aI10767229
aI10785201
aI10785226
aI10785216
aI10785248
aI10785167
aI10785240
aI10785178
aI10785273
aI10785280
aI10785189
aI10785231
aI10785236
aI10785152
aI10785182
aI10785149
aI10785185
aI10785156
aI10767225
aI10785211
aI10785266
aI10785159
aI10785253
aI10785164
aI10785196
aI10785220
aI10785223
aI10785263
aI10785208
aI10785284
aI10785244
aI10785119
aI10785123
aI10785133
aI10785130
aI10785126
aI10785142
aI10785139
aI10785304
aI10785307
aI10785299
aI10785321
aI10785324
aI10785310
aI10785318
aI10785372
aI10785375
aI10785379
aI10785342
aI10785382
aI10785366
aI10785349
aI10785327
aI10785333
aI10785336
aI10785360
aI10785352
aI10785356
aI10785330
aI10785339
aI10785363
aI10785385
aI10785405
aI10785408
aI10785412
aI10785392
aI10785402
aI10785388
aI10785398
aI10785421
aI10786725
aI10786229
aI10785974
aI10786232
aI10786271
aI10786154
aI10786102
aI10786011
aI10786110
aI10786055
aI10785981
aI10786128
aI10786191
aI10786183
aI10785959
aI10786200
aI10786001
aI10785978
aI10786179
aI10785985
aI10786214
aI10786254
aI10786085
aI10786015
aI10786059
aI10786226
aI10786025
aI10786117
aI10785989
aI10786063
aI10786044
aI10786134
aI10786195
aI10786138
aI10786172
aI10785998
aI10786088
aI10786218
aI10786147
aI10786049
aI10786206
aI10786036
aI10786221
aI10786211
aI10786236
aI10786078
aI10786245
aI10786261
aI10786162
aI10786265
aI10786157
aI10785993
aI10785971
aI10786021
aI10786150
aI10786018
aI10786068
aI10786249
aI10786005
aI10786041
aI10785968
aI10786258
aI10786091
aI10786029
aI10786203
aI10786169
aI10786081
aI10786106
aI10786073
aI10786186
aI10785630
aI10785556
aI10785552
aI10785701
aI10785515
aI10785781
aI10785502
aI10785645
aI10785715
aI10785660
aI10785430
aI10785526
aI10785563
aI10785771
aI10785694
aI10785519
aI10785473
aI10785778
aI10785784
aI10785544
aI10785426
aI10785721
aI10785505
aI10785602
aI10785534
aI10785484
aI10785591
aI10785512
aI10785666
aI10785808
aI10785541
aI10785478
aI10785441
aI10785618
aI10785689
aI10785768
aI10785704
aI10785673
aI10785498
aI10785508
aI10785583
aI10785522
aI10785764
aI10785621
aI10785749
aI10785708
aI10785724
aI10785736
aI10785594
aI10785449
aI10785752
aI10767624
aI10785566
aI10785698
aI10785805
aI10785457
aI10785742
aI10785745
aI10785615
aI10785606
aI10785611
aI10785626
aI10785538
aI10785470
aI10785670
aI10785559
aI10785686
aI10785712
aI10785587
aI10785467
aI10785739
aI10785481
aI10785634
aI10785580
aI10785678
aI10785640
aI10785529
aI10785599
aI10785452
aI10785798
aI10785816
aI10785819
aI10786799
aI10786863
aI10786279
aI10786276
aI10786331
aI10786293
aI10786296
aI10786306
aI10786418
aI10786411
aI10786396
aI10786393
aI10786302
aI10786404
aI10786287
aI10786407
aI10786399
aI10786358
aI10786352
aI10786361
aI10786355
aI10786367
aI10786339
aI10786327
aI10786349
aI10786364
aI10786415
aI10786421
aI10786284
aI10786380
aI10786389
aI10786383
aI10786343
aI10786346
aI10786386
aI10786290
aI10786299
aI10786335
aI10786376
aI10786373
aI10786370
aI10786314
aI10786317
aI10786323
aI10786320
aI10786310
aI10786469
aI10786475
aI10786472
aI10786844
aI10786853
aI10786850
aI10786741
aI10786746
aI10786734
aI10786737
aI10785877
aI10785888
aI10785864
aI10785855
aI10785898
aI10785845
aI10785872
aI10785838
aI10785852
aI10785831
aI10785893
aI10785868
aI10785835
aI10785849
aI10785842
aI10785824
aI10785885
aI10785881
aI10785859
aI10786466
aI10786426
aI10786430
aI10786433
aI10786453
aI10786447
aI10786460
aI10786463
aI10786440
aI10786437
aI10786443
aI10786457
aI10786783
aI10786789
aI10786786
aI10786778
aI10786494
aI10786478
aI10786481
aI10786491
aI10786497
aI10786487
aI10786484
aI10786500
aI10786503
aI10786872
aI10786749
aI10786758
aI10786752
aI10786761
aI10786836
aI10786827
aI10786840
aI10786830
aI10786824
aI10786833
aI10786869
aI10786767
aI10786764
aI10786506
aI10786509
aI10786672
aI10786669
aI10786663
aI10786666
aI10786652
aI10786656
aI10786602
aI10786590
aI10786587
aI10786584
aI10786574
aI10786635
aI10786632
aI10786593
aI10786629
aI10786625
aI10786649
aI10786646
aI10786639
aI10786643
aI10786612
aI10786622
aI10786619
aI10786598
aI10786608
aI10786605
aI10786615
aI10785919
aI10785916
aI10785908
aI10785913
aI10785936
aI10785926
aI10785949
aI10785946
aI10785943
aI10785940
aI10786820
aI10786817
aI10786813
aI10786809
aI10786805
aI10786802
aI10786856
aI10786859
aI10786730
aI10786721
aI10786687
aI10786710
aI10786682
aI10786679
aI10786697
aI10786692
aI10786700
aI10786707
aI10786704
aI10786717
aI10786675
aI10786714
aI10786519
aI10786558
aI10786535
aI10786562
aI10786532
aI10786529
aI10786522
aI10786565
aI10786571
aI10786548
aI10786545
aI10786539
aI10786514
aI10786553
aI10786542
aI10786796
aI10786793
aI10786770
aI10786775
aI10786902
aI10786920
aI10786938
aI10786933
aI10786941
aI10786924
aI10786962
aI10786914
aI10787007
aI10786890
aI10786917
aI10787021
aI10787016
aI10786994
aI10786976
aI10786906
aI10786948
aI10786997
aI10786983
aI10786885
aI10786979
aI10787025
aI10787028
aI10787123
aI10787137
aI10787140
aI10787153
aI10787150
aI10787143
aI10787161
aI10787133
aI10787128
aI10787157
aI10787147
aI10787280
aI10787273
aI10787276
aI10787551
aI10787557
aI10787554
aI10787546
aI10787542
aI10787223
aI10787239
aI10787220
aI10787203
aI10787189
aI10787200
aI10787206
aI10787210
aI10787233
aI10787197
aI10787213
aI10787243
aI10787226
aI10787230
aI10787236
aI10787192
aI10787217
aI10787035
aI10787620
aI10787626
aI10787633
aI10787629
aI10787803
aI10787069
aI10787644
aI10787647
aI10787056
aI10787053
aI10787508
aI10787505
aI10787511
aI10787252
aI10787256
aI10787249
aI10787114
aI10787106
aI10787110
aI10787120
aI10787096
aI10787402
aI10787398
aI10787356
aI10787376
aI10787323
aI10787328
aI10787370
aI10787386
aI10787405
aI10767264
aI10787336
aI10787391
aI10787306
aI10787344
aI10787332
aI10787347
aI10787350
aI10787312
aI10787394
aI10787381
aI10787365
aI10787362
aI10787408
aI10787602
aI10787769
aI10787773
aI10787780
aI10787777
aI10787596
aI10787590
aI10787599
aI10787936
aI10787939
aI10787784
aI10787261
aI10787267
aI10787264
aI10787073
aI10787636
aI10787738
aI10787735
aI10787038
aI10787639
aI10787667
aI10787180
aI10787171
aI10787164
aI10787174
aI10787177
aI10787607
aI10787084
aI10787092
aI10787502
aI10787466
aI10787491
aI10787448
aI10787455
aI10787459
aI10787431
aI10787435
aI10787442
aI10787419
aI10787472
aI10787480
aI10787483
aI10787496
aI10787486
aI10787416
aI10787426
aI10787462
aI10787422
aI10787477
aI10787534
aI10787538
aI10787531
aI10787527
aI10787284
aI10787301
aI10787295
aI10787289
aI10787825
aI10787828
aI10787955
aI10787674
aI10787671
aI10787750
aI10787917
aI10787695
aI10787702
aI10787707
aI10787687
aI10787684
aI10787692
aI10787710
aI10787715
aI10787698
aI10787718
aI10787678
aI10787796
aI10787800
aI10787246
aI10787867
aI10787874
aI10787744
aI10787585
aI10787578
aI10787572
aI10787561
aI10787575
aI10787564
aI10787582
aI10787758
aI10787660
aI10787651
aI10787663
aI10787657
aI10787654
aI10787041
aI10787044
aI10787764
aI10787920
aI10787078
aI10787951
aI10787835
aI10787838
aI10787841
aI10787610
aI10787613
aI10787616
aI10787871
aI10787832
aI10787822
aI10787816
aI10787819
aI10787905
aI10787747
aI10787888
aI10787891
aI10787883
aI10787878
aI10787899
aI10787914
aI10787933
aI10787945
aI10787928
aI10787790
aI10787787
aI10787793
aI10787859
aI10787853
aI10787850
aI10787847
aI10787856
aI10787902
aI10787844
aI10787741
aI10788245
aI10788251
aI10788248
aI10788239
aI10788257
aI10788254
aI10788235
aI10788242
aI10788427
aI10788770
aI10788403
aI10788477
aI10788629
aI10788373
aI10788534
aI10788825
aI10788807
aI10788524
aI10788572
aI10788589
aI10788613
aI10788366
aI10788569
aI10788684
aI10788460
aI10788647
aI10788379
aI10788456
aI10788385
aI10788655
aI10788412
aI10788407
aI10788750
aI10788704
aI10788755
aI10788547
aI10788707
aI10788566
aI10788527
aI10788667
aI10788558
aI10788712
aI10788661
aI10788795
aI10788677
aI10788431
aI10788734
aI10788664
aI10788463
aI10788440
aI10788469
aI10788747
aI10788451
aI10788576
aI10788609
aI10788773
aI10788397
aI10788687
aI10788484
aI10788502
aI10788493
aI10788816
aI10788742
aI10788737
aI10788382
aI10788509
aI10788700
aI10788670
aI10788652
aI10788606
aI10788694
aI10788415
aI10788489
aI10788515
aI10788799
aI10788813
aI10788760
aI10788787
aI10788718
aI10788474
aI10788466
aI10788697
aI10788499
aI10788496
aI10788777
aI10788681
aI10788803
aI10788437
aI10788555
aI10788782
aI10788763
aI10788537
aI10788420
aI10788424
aI10788723
aI10788531
aI10788603
aI10788563
aI10788622
aI10788819
aI10788925
aI10788962
aI10788949
aI10789028
aI10788894
aI10788901
aI10788905
aI10789035
aI10788955
aI10789024
aI10788908
aI10788911
aI10788928
aI10788987
aI10788993
aI10788931
aI10788969
aI10788983
aI10788973
aI10788879
aI10788882
aI10788917
aI10788921
aI10789017
aI10788937
aI10789046
aI10789146
aI10789085
aI10789092
aI10789165
aI10789065
aI10789125
aI10789137
aI10789140
aI10789132
aI10789114
aI10789129
aI10789089
aI10789110
aI10789121
aI10789069
aI10789052
aI10789072
aI10789161
aI10789102
aI10789081
aI10789055
aI10789149
aI10789168
aI10789154
aI10789058
aI10789095
aI10789043
aI10789143
aI10789077
aI10789061
aI10789195
aI10789192
aI10789178
aI10789207
aI10789188
aI10789185
aI10789198
aI10789181
aI10789202
aI10789220
aI10788263
aI10788309
aI10788312
aI10788288
aI10788321
aI10788294
aI10788276
aI10788306
aI10788329
aI10788271
aI10788297
aI10788360
aI10788345
aI10788333
aI10788284
aI10788302
aI10788280
aI10788339
aI10788342
aI10788844
aI10788851
aI10788847
aI10788840
aI10788837
aI10788858
aI10788861
aI10788870
aI10788834
aI10789175
aI10789225
aI10789210
aI10789172
aI10832235
aI10832384
aI10848777
aI10832504
aI10816586
aI10821548
aI10854494
aI10832671
aI10832475
aI10861971
aI10822956
aI10828074
aI10826317
aI10818320
aI10833009
aI10872513
aI10831600
aI10869952
aI10829488
aI10831606
aI10831601
aI10830293
aI10830858
aI10828053
aI10829035
aI10829888
aI10830396
aI10830477
aI10828013
aI10828320
aI10798959
aI10798971
aI10828229
aI10828216
aI10870435
aI10831216
aI10831222
aI10831573
aI10831696
aI10831503
aI10831666
aI10831462
aI10831728
aI10831440
aI10806115
aI10831098
aI10827801
aI10825587
aI10825573
aI10825567
aI10825487
aI10825422
aI10825746
aI10825750
aI10825729
aI10826329
aI10826068
aI10826155
aI10826130
aI10826063
aI10826057
aI10826642
aI10826676
aI10826659
aI10813899
aI10826649
aI10826645
aI10826547
aI10827051
aI10826881
aI10825330
aI10822139
aI10814222
aI10823760
aI10822551
aI10818167
aI10822528
aI10795210
aI10822520
aI10846107
aI10824770
aI10861692
aI10857837
aI10821338
aI10866361
aI10795343
aI10823238
aI10834423
aI10808626
aI10823948
aI10821952
aI10821377
aI10821363
aI10824196
aI10823243
aI10811537
aI10828413
aI10827071
aI10822028
aI10811939
aI10821706
aI10821362
aI10835327
aI10824683
aI10821346
aI10821349
aI10821352
aI10821571
aI10821714
aI10821628
aI10821648
aI10808364
aI10823067
aI10823050
aI10823224
aI10824988
aI10800729
aI10823828
aI10812824
aI10838852
aI10822325
aI10823895
aI10825528
aI10812612
aI10830077
aI10824065
aI10824451
aI10848860
aI10824073
aI10858104
aI10829834
aI10848094
aI10800731
aI10800727
aI10824333
aI10859158
aI10858448
aI10824490
aI10845893
aI10804941
aI10819197
aI10819551
aI10819782
aI10819656
aI10819653
aI10819693
aI10820077
aI10797846
aI10801651
aI10806184
aI10818497
aI10809381
aI10818123
aI10817737
aI10817933
aI10817686
aI10817684
aI10817674
aI10817599
aI10817608
aI10817604
aI10817618
aI10817695
aI10817689
aI10817699
aI10818061
aI10817572
aI10817568
aI10817564
aI10817581
aI10817576
aI10817637
aI10817850
aI10817476
aI10817343
aI10814889
aI10814155
aI10814847
aI10814786
aI10814849
aI10815648
aI10814557
aI10809952
aI10814683
aI10816086
aI10815866
aI10815859
aI10815863
aI10814348
aI10814375
aI10815496
aI10798880
aI10811929
aI10794090
aI10794087
aI10794082
aI10811251
aI10811245
aI10811872
aI10810250
aI10810256
aI10810424
aI10810421
aI10810498
aI10809996
aI10809993
aI10809635
aI10809430
aI10809748
aI10809030
aI10808137
aI10808350
aI10807919
aI10805855
aI10807411
aI10793202
aI10806317
aI10806297
aI10806280
aI10806265
aI10806248
aI10806492
aI10845807
aI10846095
aI10846363
aI10846802
aI10846842
aI10846592
aI10845843
aI10847008
aI10790856
aI10790622
aI10790641
aI10790655
aI10790636
aI10790638
aI10873740
aI10790288
aI10790469
aI10790333
aI10790403
aI10790361
aI10790381
aI10790399
aI10790477
aI10790302
aI10790299
aI10790296
aI10790997
aI10790983
aI10790967
aI10790971
aI10791011
aI10791348
aI10791393
aI10791390
aI10791391
aI10791349
aI10791375
aI10791381
aI10791379
aI10791377
aI10791737
aI10791733
aI10791674
aI10791912
aI10792159
aI10792712
aI10792685
aI10811937
aI10808884
aI10802397
aI10803388
aI10803366
aI10803395
aI10803392
aI10802837
aI10802247
aI10802225
aI10802236
aI10802242
aI10804393
aI10804384
aI10803883
aI10803900
aI10803897
aI10803922
aI10803919
aI10803915
aI10803912
aI10803909
aI10803906
aI10803903
aI10803744
aI10802726
aI10804173
aI10804178
aI10807220
aI10805435
aI10800802
aI10800721
aI10800718
aI10865089
aI10801400
aI10801258
aI10800710
aI10800658
aI10800496
aI10801255
aI10800281
aI10801611
aI10800619
aI10801092
aI10801193
aI10801189
aI10801187
aI10799963
aI10800182
aI10799304
aI10799302
aI10799300
aI10796293
aI10795460
aI10795793
aI10795457
aI10795452
aI10795449
aI10795446
aI10795443
aI10795440
aI10795437
aI10795692
aI10795434
aI10795431
aI10795428
aI10795424
aI10795406
aI10795401
aI10795562
aI10795506
aI10795196
aI10795192
aI10796558
aI10796221
aI10796217
aI10796412
aI10795107
aI10795103
aI10795097
aI10795158
aI10795155
aI10795152
aI10795145
aI10795142
aI10795149
aI10795139
aI10796270
aI10796267
aI10796264
aI10796749
aI10796766
aI10796763
aI10796632
aI10796704
aI10796701
aI10796698
aI10794436
aI10794443
aI10793866
aI10793155
aI10813972
aI10834399
aI10834379
aI10801698
aI10870722
aI10794065
aI10794057
aI10794053
aI10794049
aI10839278
aI10839275
aI10839332
aI10839328
aI10839325
aI10839234
aI10839269
aI10837795
aI10837134
aI10837114
aI10837129
aI10837120
aI10839822
aI10840378
aI10840469
aI10837117
aI10839864
aI10840907
aI10837966
aI10837102
aI10837099
aI10837080
aI10839089
aI10839113
aI10839110
aI10839521
aI10839509
aI10837420
aI10837346
aI10840013
aI10837284
aI10837287
aI10837077
aI10840183
aI10837149
aI10837153
aI10837146
aI10873550
aI10791269
aI10835257
aI10835259
aI10843245
aI10814724
aI10843553
aI10791115
aI10843476
aI10844229
aI10844366
aI10843734
aI10843720
aI10843693
aI10804367
aI10843651
aI10806661
aI10844710
aI10863227
aI10842418
aI10842414
aI10842633
aI10842478
aI10843398
aI10802374
aI10847490
aI10818221
aI10818217
aI10818185
aI10847699
aI10847695
aI10847734
aI10818201
aI10818197
aI10818189
aI10817899
aI10817887
aI10847753
aI10817880
aI10847758
aI10817875
aI10847731
aI10847750
aI10817867
aI10817863
aI10847738
aI10847721
aI10847671
aI10847653
aI10847662
aI10818262
aI10818267
aI10818244
aI10818240
aI10818235
aI10864003
aI10865077
aI10827912
aI10843774
aI10852368
aI10852365
aI10852354
aI10851019
aI10854169
aI10855898
aI10852322
aI10857164
aI10857179
aI10857018
aI10857160
aI10857028
aI10857095
aI10857044
aI10815563
aI10857976
aI10857786
aI10859030
aI10797435
aI10859165
aI10857355
aI10864948
aI10861021
aI10822345
aI10859549
aI10859553
aI10859551
aI10823731
aI10822966
aI10860304
aI10861515
aI10861429
aI10861423
aI10859761
aI10862413
aI10862409
aI10862403
aI10862395
aI10862386
aI10862383
aI10862381
aI10862377
aI10862363
aI10862349
aI10861877
aI10861857
aI10861854
aI10861848
aI10862027
aI10865184
aI10862696
aI10862191
aI10860414
aI10864425
aI10804695
aI10860556
aI10860050
aI10864788
aI10867543
aI10860512
aI10860400
aI10863679
aI10860636
aI10860227
aI10860246
aI10860947
aI10860950
aI10864308
aI10861208
aI10864287
aI10864707
aI10865979
aI10863222
aI10866566
aI10864778
aI10844052
aI10868716
aI10844722
aI10845805
aI10843876
aI10872747
aI10872592
aI10874429
aI10874723
aI10874710
aI10875906
aI10876474
aI10876654
aI10881332
aI10881742
aI10885502
aI10885469
aI10885323
aI10885319
aI10885315
aI10885311
aI10885307
aI10885303
aI10885381
aI10885374
aI10885372
aI10885368
aI10885373
aI10888058
aI10887081
aI10887093
aI10887089
aI10886576
aI10887201
aI10886753
aI10886589
aI10887002
aI10887065
aI10886766
aI10886769
aI10886767
aI10886601
aI10886598
aI10886597
aI10887435
aI10884805
aI10888297
aI10888299
aI10888295
aI10888283
aI10888267
aI10909921
aI10909937
aI10910138
aI10908031
aI10908020
aI10907968
aI10907969
aI10907971
aI10907977
aI10908060
aI10907972
aI10908062
aI10908095
aI10907986
aI10907931
aI10907933
aI10908013
aI10907911
aI10907919
aI10907951
aI10907943
aI10907944
aI10907965
aI10907963
aI10907961
aI10907957
aI10908080
aI10908077
aI10908075
aI10908073
aI10908085
aI10908089
aI10908096
aI10908104
aI10908105
aI10908107
aI10908113
aI10908115
aI10908118
aI10908120
aI10908122
aI10908123
aI10908125
aI10909378
aI10909151
aI10909209
aI10909261
aI10908183
aI10909198
aI10909144
aI10907369
aI10907370
aI10907371
aI10906558
aI10906559
aI10906560
aI10907529
aI10907542
aI10907541
aI10906169
aI10906175
aI10906176
aI10905639
aI10910207
aI10911664
aI10912008
aI10912489
aI10913700
aI10913703
aI10913698
aI10912670
aI10912667
aI10912700
aI10912701
aI10912702
aI10912703
aI10912706
aI10912707
aI10912709
aI10912710
aI10912712
aI10912713
aI10912714
aI10912715
aI10912719
aI10912720
aI10912721
aI10912673
aI10912674
aI10912678
aI10912680
aI10912683
aI10912686
aI10912687
aI10912690
aI10912692
aI10916203
aI10916930
aI10917115
aI10917642
aI10916794
aI10919924
aI10919555
aI10919775
aI10889076
aI10889795
aI10889873
aI10890384
aI10890556
aI10890933
aI10892904
aI10893687
aI10895045
aI10896102
aI10897990
aI10897198
aI10897149
aI10897192
aI10897201
aI10899066
aI10897719
aI10896502
aI10896338
aI10896345
aI10896364
aI10896416
aI10642855
aI10934802
aI10527405
aI10889109
aI10778231
aI10923812
aI10923332
aI10922901
aI10922873
aI10922896
aI10922744
aI10922750
aI10922747
aI10922932
aI10925293
aI10935304
aI10931737
aI10933376
aI10932612
aI10935329
aI10935489
aI10928042
aI10928159
aI10928264
aI10927916
aI10928015
aI10927948
aI10927951
aI10927980
aI10930041
aI10930044
aI10930128
aI10929086
aI10928739
aI10929198
aI10930530
aI10931337
aI10935348
aI10934057
aI10935203
aI10935114
aI10935117
aI10935126
aI10935173
aI10934826
aI10934722
aI10658178
aI10647115
aI10658340
aI10658339
aI10638995
aI10946108
aI10945703
aI10947439
aI10941533
aI10639641
aI10596159
aI10652353
aI10945048
aI10722800
aI10717446
aI10698281
aI10701103
aI10697856
aI10700891
aI10700924
aI10640630
aI10640631
aI10640675
aI10640784
aI10640722
aI10640729
aI10640723
aI10640762
aI10640724
aI10640725
aI10640726
aI10640727
aI10640728
aI10640887
aI10640885
aI10640889
aI10657400
aI10657354
aI10657353
aI10657352
aI10657351
aI10657358
aI10657357
aI10657355
aI10657360
aI10701062
aI10657694
aI10701086
aI10701063
aI10701109
aI10657658
aI10707047
aI10707045
aI10657225
aI10657228
aI10636712
aI10701108
aI10657022
aI10657023
aI10657024
aI10657025
aI10657027
aI10657028
aI10697516
aI10657390
aI10636044
aI10640908
aI10639348
aI10639350
aI10639354
aI10639349
aI10657703
aI10657070
aI10651243
aI10601146
aI10652611
aI10699957
aI10700067
aI10699927
aI10699976
aI10700077
aI10699044
aI10700004
aI10699940
aI10699904
aI10699224
aI10699373
aI10699215
aI10699924
aI10699803
aI10699813
aI10657469
aI10707010
aI10709378
aI10709688
aI10709656
aI10707336
aI10709498
aI10709516
aI10709532
aI10709518
aI10709515
aI10709586
aI10709420
aI10701099
aI10696822
aI10707003
aI10709387
aI10709475
aI10709410
aI10709481
aI10709395
aI10709567
aI10709396
aI10699593
aI10656982
aI10657375
aI10652825
aI10699754
aI10699735
aI10699734
aI10657043
aI10657044
aI10657389
aI10646523
aI10646469
aI10651449
aI10697599
aI10697204
aI10697205
aI10697555
aI10697372
aI10657266
aI10689981
aI10657008
aI10697168
aI10696901
aI10696900
aI10697316
aI10657350
aI10697852
aI10699779
aI10699781
aI10699784
aI10699772
aI10699770
aI10605977
aI10700966
aI10700154
aI10699887
aI10700094
aI10700052
aI10700058
aI10721499
aI10699891
aI10699888
aI10993427
aI10993753
aI10994041
aI10999819
aI10999464
aI10709851
aI10706883
aI10700941
aI10700850
aI10699242
aI10700296
aI10700295
aI10700290
aI10700292
aI10700298
aI10700293
aI10699426
aI10707357
aI10709837
aI10699334
aI10699336
aI10706898
aI10698906
aI10709859
aI10698100
aI10707418
aI10698624
aI10698625
aI10707353
aI10698626
aI10707416
aI10707417
aI10707354
aI10707355
aI10700721
aI10698856
aI10700722
aI10700300
aI10699763
aI10698839
aI10707324
aI10698250
aI10707320
aI10700087
aI10699274
aI10699275
aI10707039
aI10699276
aI10699277
aI10699273
aI10707228
aI10894161
aI10709742
aI10706865
aI10706866
aI10699061
aI10699421
aI10699420
aI10656377
aI10680045
aI10578323
aI10591467
aI10689735
aI10640248
aI10596276
aI10520271
aI10700565
aI10596220
aI10599353
aI10571090
aI10599480
aI10560545
aI10629709
aI10640373
aI10679331
aI10679328
aI10598797
aI10635048
aI10592642
aI10649722
aI10588224
aI10641090
aI10678002
aI10587079
aI10689434
aI10553386
aI10588596
aI10642520
aI10647805
aI10648617
aI10648808
aI10648809
aI10649031
aI10649084
aI10649087
aI10649095
aI10654160
aI10657704
aI10670742
aI10859902
aI10508995
aI10686152
aI10864093
aI10817150
aI10861369
aI10645067
aI10644962
aI10644970
aI10613691
aI10865382
aI10699366
aI10699368
aI10939764
aI10939767
aI10863887
aI10862347
aI10593347
aI10865657
aI10860871
aI10866105
aI10861714
aI10860479
aI10643935
aI10861674
aI10866167
aI10866111
aI10695912
aI10571850
aI10577300
aI10585844
aI10642441
aI10657415
aI10657416
aI10657418
aI10657419
aI10657421
aI10657422
aI10657424
aI10657425
aI10657431
aI10657475
aI10657491
aI10658393
aI10677408
aI10678731
aI10680188
aI10681912
aI10685514
aI10692669
aI10701104
aI10701116
aI10576198
aI10633582
aI10641388
aI10649406
aI10654174
aI10654865
aI10655730
aI10656651
aI10684589
aI10588844
aI10598322
aI10691668
aI10692251
aI10692204
aI10692749
aI10692745
aI10690979
aI10646486
aI10655893
aI10570499
aI10592675
aI10595466
aI10666968
aI10647057
aI10647058
aI10639368
aI10647733
aI10567908
aI10592095
aI10592139
aI10592141
aI10592144
aI10592145
aI10592595
aI10592701
aI10594485
aI10597866
aI10599953
aI10606150
aI10647813
aI10650712
aI10644952
aI10573949
aI10570401
aI10606289
aI10606339
aI10615857
aI10640601
aI10641375
aI10641378
aI10641385
aI10649444
aI10653260
aI10654021
aI10658470
aI10658478
aI10587301
aI10606130
aI10606219
aI10606366
aI10606367
aI10606368
aI10609344
aI10609374
aI10609375
aI10615717
aI10553343
aI10609350
aI10615789
aI10584047
aI10593799
aI10607361
aI10641777
aI10643880
aI10644869
aI10691128
aI10584854
aI10635937
aI10646923
aI10505220
aI10917864
aI10575820
aI10576142
aI10588156
aI10594626
aI10594646
aI10642803
aI10642804
aI10642805
aI10642806
aI10642810
aI10642812
aI10642813
aI10642814
aI10642816
aI10642817
aI10649242
aI10650861
aI10653713
aI10686295
aI10701101
aI10600044
aI10620507
aI10642906
aI10578795
aI10633364
aI10650859
aI10653696
aI10691862
aI10701095
aI10701117
aI10692832
aI10693910
aI10692987
aI10691639
aI10694242
aI10693916
aI10693905
aI10693725
aI10693718
aI10698586
aI10698596
aI10700323
aI10720929
aI10793409
aI10689482
aI10643339
aI10754703
aI10567924
aI10643145
aI10644188
aI10644190
aI10644200
aI10644220
aI10644222
aI10644233
aI10644240
aI10654676
aI10922330
aI10577876
aI10652881
aI10652882
aI10652895
aI10652896
aI10652897
aI10652898
aI10652899
aI10652900
aI10679910
aI10700740
aI10580165
aI10644226
aI10644234
aI10644239
aI10644241
aI10667254
aI10590181
aI10591127
aI10592993
aI10597965
aI10642928
aI10519743
aI10563551
aI10699460
aI10699461
aI10697769
aI10699348
aI10707299
aI10756083
aI10698258
aI10697757
aI10707317
aI10699464
aI10697300
aI10697395
aI10697609
aI10688571
aI10699469
aI10706896
aI10698259
aI10697538
aI10697763
aI10699473
aI10706897
aI10697766
aI10699466
aI10698616
aI10697630
aI10764726
aI10698237
aI10697396
aI10699471
aI10561757
aI10567860
aI10567882
aI10585551
aI10587085
aI10587291
aI10593234
aI10594084
aI10629370
aI10639244
aI10641971
aI10641972
aI10642807
aI10644237
aI10647776
aI10655047
aI10629195
aI10521167
aI10643247
aI10691566
aI10692901
aI10553316
aI10567876
aI10582287
aI10583398
aI10753210
aI10753174
aI10922329
aI10678746
aI10996731
aI10689634
aI10524702
aI10582089
aI10644955
aI10653148
aI10652234
aI10588676
aI10648831
aI10678506
aI10691467
aI10568863
aI10501316
aI10511325
aI10521177
aI10516762
aI10646959
aI10643252
aI10656257
aI10657948
aI10567911
aI10518435
aI10644246
aI10591126
aI10519159
aI10586664
aI10615829
aI10689732
aI10573174
aI10519369
aI10566582
aI10562120
aI10606156
aI10670057
aI10699246
aI10571861
aI10594359
aI10699342
aI10619833
aI10524067
aI10524069
aI10700309
aI10696677
aI10698615
aI10700925
aI10701046
aI10571663
aI10575821
aI10577763
aI10580813
aI10584057
aI10584063
aI10589182
aI10590672
aI10592786
aI10593095
aI10597168
aI10599450
aI10599922
aI10600529
aI10601123
aI10602924
aI10616492
aI10620982
aI10633243
aI10633254
aI10633330
aI10635288
aI10639338
aI10644708
aI10647172
aI10649684
aI10655715
aI10657312
aI10657414
aI10666897
aI10677026
aI10685628
aI10689703
aI10689708
aI10691511
aI10691641
aI10692104
aI10692712
aI10701126
aI10555451
aI10565938
aI10580114
aI10582425
aI10582437
aI10594162
aI10598794
aI10635694
aI10641113
aI10644023
aI10521412
aI10652744
aI10655316
aI10873474
aI10680697
aI10509588
aI10509604
aI10509592
aI10557460
aI10570227
aI10571946
aI10580371
aI10583940
aI10588547
aI10592015
aI10598655
aI10636767
aI10637072
aI10638821
aI10641492
aI10642841
aI10650932
aI10653469
aI10687252
aI10567158
aI10576014
aI10576017
aI10589352
aI10647770
aI10677419
aI10680051
aI10555286
aI10557612
aI10600447
aI10650863
aI10657299
aI10666781
aI10684513
aI10520505
aI10567722
aI10576206
aI10581142
aI10585561
aI10578659
aI10590034
aI10590682
aI10591760
aI10594993
aI10629911
aI10633766
aI10633852
aI10635984
aI10640470
aI10645953
aI10656294
aI10676616
aI10691165
aI10692764
aI10692766
aI10692814
aI10642442
aI10643923
aI10553135
aI10570053
aI10593157
aI10644066
aI10644132
aI10645436
aI10646774
aI10646915
aI10646917
aI10646918
aI10646920
aI10646921
aI10648692
aI10648693
aI10648695
aI10648696
aI10648713
aI10686095
aI10553605
aI10564533
aI10570335
aI10577301
aI10580369
aI10580730
aI10585459
aI10594454
aI10594509
aI10631858
aI10635290
aI10643710
aI10652885
aI10654889
aI10654890
aI10654999
aI10655003
aI10655005
aI10677298
aI10678534
aI10685247
aI10691408
aI10699051
aI10707322
aI10699050
aI10580902
aI10553098
aI10568774
aI10568775
aI10573818
aI10583768
aI10587602
aI10593057
aI10629322
aI10638899
aI10639168
aI10646642
aI10647197
aI10680493
aI10692569
aI10553757
aI10557505
aI10570804
aI10572123
aI10578207
aI10579057
aI10579284
aI10581172
aI10594754
aI10596441
aI10606844
aI10606864
aI10633652
aI10570950
aI10643978
aI10644186
aI10654541
aI10656863
aI10666783
aI10691399
aI10692813
aI10520504
aI10572911
aI10588463
aI10600940
aI10619312
aI10637719
aI10642762
aI10643288
aI10643744
aI10643755
aI10686164
aI10859572
aI10574088
aI10578755
aI10585964
aI10595811
aI10605974
aI10607463
aI10635013
aI10646361
aI10698859
aI10566331
aI10593791
aI10594743
aI10599403
aI10599404
aI10635080
aI10635914
aI10642484
aI10689579
aI10756581
aI10692831
aI10601151
aI10635301
aI10641725
aI10652204
aI10653480
aI10655695
aI10676820
aI10678587
aI10679659
aI10509579
aI10515121
aI10517480
aI10502874
aI10566418
aI10567869
aI10567858
aI10567870
aI10567862
aI10567885
aI10567874
aI10567856
aI10567868
aI10567857
aI10567861
aI10567867
aI10567875
aI10567780
aI10567779
aI10567771
aI10567777
aI10567778
aI10567773
aI10567781
aI10567774
aI10567772
aI10567782
aI10566420
aI10567889
aI10567890
aI10567888
aI10567893
aI10651759
aI10643255
aI10644490
aI10648590
aI10578135
aI10586105
aI10586104
aI10567323
aI10600516
aI10600520
aI10698233
aI10698248
aI10666584
aI10665615
aI10752578
aI10752559
aI10752551
aI10847925
aI10592432
aI10694174
aI10693722
aI10691676
aI10505959
aI10656818
aI10656861
aI10656952
aI10656951
aI10656817
aI10656860
aI10656852
aI10546019
aI10505960
aI10547526
aI10997251
aI10998602
aI10998736
aI10524088
aI10994091
aI10998918
aI10585509
aI10594346
aI10643700
aI10536787
aI10602364
aI10601192
aI10757104
aI10753153
aI10816992
aI10812694
aI10860716
aI10802446
aI10836180
aI10692707
aI10692765
aI10692810
aI10692811
aI10692818
aI10908027
aI10908039
aI10908023
aI10908034
aI10941311
aI10941312
aI10710160
aI10941365
aI10698135
aI10698243
aI10697264
aI10698195
aI10698199
aI10699467
aI10700302
aI10643999
aI10611841
aI10675910
aI10697811
aI10697800
aI10697812
aI10697810
aI10697796
aI10697807
aI10697735
aI10697202
aI10697342
aI10697678
aI10599957
aI10584243
aI10575654
aI10591230
aI10592788
aI10593518
aI10595411
aI10622713
aI10634435
aI10634602
aI10641150
aI10642494
aI10646345
aI10649291
aI10651758
aI10677314
aI10691881
aI10573904
aI10576815
aI10576990
aI10577357
aI10577361
aI10580292
aI10580917
aI10580923
aI10581554
aI10591749
aI10592513
aI10592566
aI10598155
aI10598180
aI10600466
aI10600472
aI10600484
aI10600487
aI10600492
aI10600493
aI10609378
aI10612490
aI10634867
aI10641114
aI10642504
aI10644469
aI10646193
aI10652270
aI10653787
aI10658420
aI10664516
aI10680062
aI10574004
aI10588132
aI10598082
aI10598440
aI10599600
aI10599669
aI10522607
aI10600497
aI10600500
aI10600501
aI10600503
aI10600532
aI10600540
aI10600541
aI10604860
aI10611851
aI10639628
aI10639910
aI10643235
aI10655726
aI10678769
aI10680269
aI10680270
aI10680285
aI10680286
aI10680287
aI10680291
aI10680479
aI10680480
aI10680484
aI10680486
aI10680536
aI10680539
aI10680574
aI10702000
aI10567603
aI10567910
aI10676227
aI10676363
aI10676529
aI10655944
aI10655953
aI10677201
aI10676315
aI10583855
aI10585393
aI10686075
aI10646522
aI10686068
aI10686073
aI10640951
aI10657429
aI10697172
aI10697557
aI10593987
aI10642182
aI10642122
aI10642149
aI10556105
aI10655806
aI10572213
aI10836136
aI10836134
aI10836138
aI10835217
aI10834823
aI10834825
aI10833604
aI10835239
aI10834687
aI10834714
aI10833896
aI10833807
aI10858949
aI10836600
aI10802830
aI10836523
aI10836657
aI10805997
aI10806003
aI10805999
aI10806005
aI10829992
aI10827698
aI10825644
aI10808065
aI10810669
aI10867303
aI10861779
aI10857193
aI10857245
aI10832423
aI10795190
aI10868380
aI10811243
aI10806877
aI10802627
aI10846589
aI10868382
aI10845962
aI10812591
aI10812710
aI10812708
aI10812704
aI10807916
aI10836655
aI10812091
aI10817122
aI10794259
aI10825654
aI10792748
aI10837332
aI10857068
aI10857056
aI10857070
aI10857062
aI10857064
aI10858326
aI10847006
aI10857066
aI10857053
aI10857058
aI10819343
aI10834951
aI10811863
aI10805967
aI10819823
aI10845306
aI10821550
aI10844040
aI10849469
aI10849467
aI10844015
aI10844262
aI10834981
aI10844005
aI10844104
aI10844094
aI10843631
aI10843516
aI10843514
aI10843949
aI10849461
aI10843946
aI10844219
aI10849463
aI10844098
aI10844578
aI10843938
aI10844102
aI10843502
aI10843496
aI10843940
aI10843942
aI10844637
aI10843804
aI10844112
aI10844484
aI10843629
aI10844118
aI10844546
aI10843512
aI10844542
aI10843944
aI10844539
aI10844639
aI10844258
aI10844641
aI10844260
aI10872484
aI10844745
aI10844123
aI10844133
aI10844139
aI10844137
aI10844135
aI10844603
aI10844717
aI10844652
aI10843930
aI10844378
aI10844384
aI10844386
aI10844380
aI10844390
aI10844715
aI10844733
aI10844727
aI10843579
aI10844646
aI10843530
aI10843581
aI10843577
aI10843480
aI10843482
aI10843573
aI10844654
aI10843532
aI10790217
aI10844731
aI10844736
aI10844729
aI10844650
aI10843524
aI10844738
aI10844719
aI10844658
aI10844721
aI10844725
aI10844707
aI10844656
aI10844488
aI10844296
aI10844306
aI10844456
aI10844266
aI10844298
aI10844302
aI10844486
aI10844254
aI10844183
aI10844304
aI10844114
aI10834799
aI10844308
aI10844116
aI10844185
aI10834788
aI10844598
aI10801826
aI10800624
aI10825359
aI10820254
aI10820920
aI10821326
aI10811271
aI10821056
aI10820010
aI10820405
aI10819151
aI10820848
aI10843471
aI10841389
aI10841391
aI10814050
aI10849471
aI10841936
aI10810163
aI10825408
aI10791279
aI10818437
aI10817558
aI10818344
aI10818341
aI10818338
aI10806025
aI10807113
aI10817474
aI10806190
aI10846482
aI10793841
aI10793806
aI10793846
aI10800159
aI10804019
aI10804016
aI10790985
aI10832862
aI10802311
aI10838869
aI10849957
aI10825406
aI10863409
aI10802545
aI10811842
aI10804332
aI10854484
aI10859614
aI10800553
aI10800551
aI10872648
aI10872650
aI10872760
aI10872414
aI10872489
aI10818461
aI10839552
aI10857433
aI10793031
aI10793005
aI10809410
aI10872357
aI10837637
aI10837635
aI10841198
aI10841190
aI10841188
aI10840581
aI10837570
aI10837537
aI10837529
aI10837521
aI10837504
aI10837497
aI10837802
aI10837695
aI10837519
aI10837525
aI10837712
aI10841196
aI10837560
aI10840589
aI10837612
aI10837517
aI10837689
aI10837657
aI10837697
aI10837499
aI10837562
aI10837535
aI10837514
aI10837706
aI10837601
aI10837617
aI10837790
aI10841202
aI10837533
aI10837543
aI10837576
aI10837568
aI10837708
aI10837699
aI10837527
aI10837508
aI10841200
aI10837552
aI10837523
aI10837710
aI10837564
aI10837583
aI10840583
aI10840109
aI10837512
aI10840579
aI10837704
aI10837506
aI10837687
aI10837531
aI10837701
aI10837558
aI10840577
aI10837541
aI10837572
aI10837691
aI10827090
aI10831303
aI10793516
aI10843753
aI10810121
aI10854072
aI10854076
aI10833652
aI10833638
aI10833636
aI10833630
aI10833661
aI10833617
aI10833615
aI10834753
aI10833648
aI10833632
aI10833611
aI10833622
aI10833620
aI10833609
aI10833626
aI10836178
aI10833624
aI10834646
aI10833640
aI10833644
aI10833634
aI10835245
aI10834829
aI10854490
aI10854492
aI10854495
aI10851622
aI10816030
aI10816160
aI10852056
aI10852004
aI10851705
aI10852063
aI10851632
aI10851733
aI10852103
aI10852060
aI10828811
aI10825903
aI10851939
aI10851787
aI10851817
aI10852092
aI10852073
aI10852058
aI10852026
aI10852013
aI10852002
aI10851985
aI10851979
aI10851662
aI10851660
aI10851636
aI10851630
aI10852053
aI10851935
aI10851923
aI10851917
aI10851902
aI10851868
aI10851721
aI10851719
aI10851753
aI10852090
aI10852071
aI10852028
aI10851640
aI10851971
aI10851731
aI10852015
aI10851941
aI10851892
aI10851864
aI10851852
aI10852007
aI10851693
aI10851723
aI10851925
aI10852030
aI10851976
aI10851811
aI10851905
aI10852076
aI10851741
aI10851609
aI10851996
aI10851915
aI10851981
aI10851919
aI10852039
aI10851683
aI10851848
aI10852047
aI10851825
aI10851759
aI10851994
aI10851773
aI10851652
aI10851775
aI10851654
aI10851959
aI10851703
aI10851755
aI10851599
aI10851987
aI10851763
aI10851929
aI10851896
aI10851725
aI10851701
aI10851882
aI10851829
aI10851695
aI10851862
aI10851674
aI10852020
aI10851749
aI10851821
aI10851685
aI10851676
aI10822833
aI10855531
aI10801547
aI10800900
aI10860182
aI10830532
aI10854486
aI10852009
aI10851717
aI10851835
aI10851876
aI10851644
aI10851713
aI10851656
aI10851909
aI10854500
aI10854498
aI10851998
aI10814316
aI10830556
aI10835702
aI10844922
aI10858076
aI10858083
aI10858062
aI10859299
aI10805485
aI10858043
aI10858041
aI10858070
aI10858087
aI10858072
aI10858848
aI10858080
aI10858014
aI10858085
aI10858029
aI10858036
aI10858027
aI10858056
aI10858019
aI10858066
aI10858017
aI10858074
aI10858032
aI10862420
aI10811485
aI10873400
aI10873454
aI10793631
aI10675588
aI10791182
aI10791414
aI10790807
aI10792123
aI10849457
aI10834244
aI10848237
aI10802661
aI10848979
aI10849453
aI10849451
aI10802704
aI10848335
aI10800197
aI10849149
aI10817495
aI10817479
aI10817468
aI10848303
aI10751513
aI10751510
aI10732425
aI10754146
aI10754165
aI10752580
aI10752573
aI10752549
aI10752541
aI10752571
aI10752553
aI10752535
aI10752567
aI10752563
aI10756907
aI10756904
aI10754288
aI10757217
aI10756554
aI10758677
aI10758959
aI10758965
aI10758946
aI10759976
aI10758954
aI10758971
aI10758956
aI10757045
aI10755317
aI10764724
aI10761478
aI10756052
aI10757250
aI10758973
aI10758976
aI10759403
aI10759401
aI10756911
aI10753216
aI10753171
aI10753165
aI10753159
aI10753168
aI10754310
aI10754311
aI10757345
aI10759978
aI10756475
aI10756916
aI10759428
aI10759914
aI10759911
aI10755831
aI10761613
aI10761617
aI10764762
aI10761615
aI10761619
aI10763748
aI10759750
aI10759748
aI10759755
aI10759747
aI10759745
aI10759744
aI10759746
aI10758850
aI10764772
aI10756965
aI10756956
aI10756958
aI10756963
aI10756954
aI10759132
aI10755956
aI10756860
aI10756868
aI10756862
aI10756866
aI10756864
aI10756408
aI10756470
aI10756480
aI10756478
aI10763571
aI10754890
aI10754887
aI10754684
aI10754706
aI10754697
aI10754695
aI10754707
aI10754668
aI10754693
aI10754679
aI10754701
aI10754685
aI10754672
aI10754699
aI10754551
aI10751704
aI10751706
aI10893684
aI10693745
aI10919528
aI10642811
aI10931684
aI10929964
aI10929518
aI10655059
aI10954058
aI10699355
aI10706895
aI10707302
aI10698129
aI10698111
aI10697493
aI10698268
aI10697292
aI10707183
aI10679006
aI10552778
aI10553574
aI10520929
aI10557440
aI10557441
aI10570923
aI10581810
aI10587593
aI10594613
aI10632904
aI10639398
aI10642541
aI10653025
aI10682412
aI10581279
aI10582014
aI10584338
aI10589643
aI10607047
aI10615808
aI10641053
aI10641101
aI10674291
aI10674292
aI10675934
aI10675936
aI10690009
aI10692655
aI10566386
aI10580011
aI10590650
aI10600037
aI10634864
aI10638944
aI10641372
aI10678620
aI10686252
aI10686253
aI10569450
aI10572071
aI10577999
aI10578000
aI10584733
aI10593783
aI10595373
aI10600491
aI10639309
aI10644578
aI10644843
aI10647797
aI10649475
aI10685550
aI10577752
aI10640959
aI10651419
aI10675924
aI10581673
aI10673275
aI10673286
aI10978472
aI10796494
aI10948124
aI10512809
aI10568750
aI10635104
aI10654653
aI10573944
aI10642783
aI10642765
aI10575102
aI10670048
aI10983241
aI10684981
aI10521286
aI10578379
aI10589844
aI10655196
aI10629446
aI10649617
aI10592427
aI10593665
aI10767673
aI10648514
aI10572004
aI10583887
aI10587048
aI10635918
aI10646020
aI10652592
aI10720191
aI10644050
aI10511100
aI10511101
aI10511102
aI10511104
aI10511105
aI10511103
aI10517908
aI10570985
aI10567912
aI10653311
aI10569138
aI10553327
aI10553121
aI10553104
aI10553103
aI10553118
aI10553124
aI10553120
aI10553250
aI10991711
aI10636794
aI10645002
aI10578956
aI10644756
aI10648523
aI10506464
aI10518119
aI10625516
aI10645712
aI10679532
aI10650735
aI10659308
aI10563876
aI10570419
aI10634001
aI10638253
aI10638574
aI10638575
aI10638577
aI10697209
aI10697727
aI10697780
aI10697744
aI10697623
aI10698572
aI10697675
aI10697808
aI10697784
aI10697806
aI10697790
aI10697776
aI10700337
aI10700317
aI10700343
aI10697772
aI10698584
aI10698610
aI10698603
aI10698567
aI10697748
aI10562534
aI10569815
aI10645416
aI10645430
aI10655052
aI10655053
aI10673859
aI10690982
aI10691125
aI10564278
aI10595918
aI10597294
aI10622899
aI10622900
aI10623418
aI10623488
aI10623489
aI10641377
aI10645419
aI10645420
aI10645489
aI10645506
aI10645616
aI10645923
aI10645930
aI10645990
aI10652266
aI10653044
aI10653067
aI10658788
aI10866899
aI10680329
aI10686091
aI10692771
aI10514802
aI10652886
aI10652887
aI10652888
aI10523707
aI10558118
aI10561744
aI10566121
aI10566590
aI10570343
aI10571743
aI10574206
aI10579721
aI10580546
aI10581174
aI10582426
aI10583936
aI10585571
aI10586120
aI10586263
aI10587292
aI10590793
aI10591782
aI10594129
aI10596440
aI10596712
aI10599505
aI10606846
aI10606893
aI10606908
aI10606933
aI10606955
aI10607005
aI10615776
aI10622257
aI10630124
aI10635353
aI10638936
aI10641689
aI10642801
aI10644091
aI10644249
aI10644548
aI10644549
aI10647149
aI10647155
aI10649235
aI10651568
aI10652499
aI10655588
aI10657393
aI10657410
aI10657413
aI10657443
aI10658544
aI10658918
aI10680085
aI10691284
aI10691619
aI10692564
aI10692567
aI10692568
aI10693900
aI10693906
aI10693914
aI10693915
aI10595509
aI10599407
aI10644983
aI10984404
aI10591124
aI10646665
aI10654629
aI10590077
aI10643359
aI10693693
aI10621227
aI10627124
aI10645107
aI10679142
aI10567871
aI10567923
aI10569036
aI10569037
aI10569040
aI10569043
aI10569047
aI10636650
aI10636661
aI10644180
aI10645789
aI10645847
aI10658175
aI10658176
aI10658182
aI10658184
aI10658189
aI10660427
aI10660430
aI10583798
aI10594479
aI10647060
aI10692747
aI10697288
aI10697013
aI10697014
aI10635228
aI10647154
aI10691671
aI10693692
aI10990895
aI10991437
aI10654376
aI10693700
aI10650578
aI10561743
aI10647061
aI10647151
aI10647153
aI10691133
aI10692306
aI10692376
aI10692679
aI10692742
aI10692743
aI10692746
aI10692748
aI10692750
aI10692751
aI10692761
aI10692762
aI10692763
aI10692808
aI10692812
aI10692986
aI10692988
aI10692989
aI10692990
aI10692991
aI10693691
aI10693694
aI10693697
aI10693698
aI10693701
aI10693704
aI10693917
aI10693918
aI10693919
aI10694170
aI10694171
aI10694227
aI10694252
aI10694254
aI10589171
aI10582584
aI10633494
aI10648700
aI10693719
aI10693721
aI10693888
aI10693889
aI10693890
aI10693892
aI10693907
aI10693908
aI10693909
aI10693913
aI10694172
aI10694175
aI10653810
aI10698587
aI10567401
aI10594589
aI10629160
aI10636236
aI10639153
aI10653112
aI10656420
aI10656677
aI10575377
aI10576059
aI10652274
aI10678754
aI10552634
aI10585033
aI10648461
aI10622692
aI10584852
aI10649812
aI10692212
aI10690115
aI10691653
aI10691672
aI10692247
aI10692830
aI10692875
aI10693702
aI10693713
aI10654656
aI10982538
aI10968822
aI10609349
aI10648701
aI10648703
aI10648705
aI10648709
aI10648710
aI10593416
aI10594196
aI10594222
aI10658694
aI10591274
aI10643172
aI10678479
aI10691666
aI10692278
aI10692553
aI10692554
aI10692555
aI10692556
aI10692557
aI10692558
aI10692559
aI10692560
aI10692561
aI10692562
aI10692563
aI10692565
aI10692570
aI10648084
aI10648111
aI10635754
aI10597426
aI10600898
aI10643114
a.